MP2COD 4.12, COFF to COD File Converter
Copyright (c) 2007 Microchip Technology Inc.
Listing File Generated: Sat Mar 22 19:34:05 2008


Address  Value    Disassembly              Source                                                                           File
-------  -------  -----------------------  -------------------------------------------------------------------------------  -----
                                           /* $Id: c018i.c,v 1.7 2006/11/15 22:53:12 moshtaa Exp $ */                       C:\MCC18\src\traditional\startup\c018i.c
                                                                                                                            C:\MCC18\src\traditional\startup\c018i.c
                                           /* Copyright (c)1999 Microchip Technology */                                     C:\MCC18\src\traditional\startup\c018i.c
                                                                                                                            C:\MCC18\src\traditional\startup\c018i.c
                                           /* MPLAB-C18 startup code, including initialized data */                         C:\MCC18\src\traditional\startup\c018i.c
                                                                                                                            C:\MCC18\src\traditional\startup\c018i.c
                                           /* external reference to __init() function */                                    C:\MCC18\src\traditional\startup\c018i.c
                                           extern void __init (void);                                                       C:\MCC18\src\traditional\startup\c018i.c
                                           /* external reference to the user's main routine */                              C:\MCC18\src\traditional\startup\c018i.c
                                           extern void main (void);                                                         C:\MCC18\src\traditional\startup\c018i.c
                                           /* prototype for the startup function */                                         C:\MCC18\src\traditional\startup\c018i.c
                                           void _entry (void);                                                              C:\MCC18\src\traditional\startup\c018i.c
                                           void _startup (void);                                                            C:\MCC18\src\traditional\startup\c018i.c
                                           /* prototype for the initialized data setup */                                   C:\MCC18\src\traditional\startup\c018i.c
                                           void _do_cinit (void);                                                           C:\MCC18\src\traditional\startup\c018i.c
                                                                                                                            C:\MCC18\src\traditional\startup\c018i.c
                                           extern volatile near unsigned long short TBLPTR;                                 C:\MCC18\src\traditional\startup\c018i.c
                                           extern near unsigned FSR0;                                                       C:\MCC18\src\traditional\startup\c018i.c
                                           extern near char __FPFLAGS;                                                      C:\MCC18\src\traditional\startup\c018i.c
                                           #define RND 6                                                                    C:\MCC18\src\traditional\startup\c018i.c
                                                                                                                            C:\MCC18\src\traditional\startup\c018i.c
                                           #pragma code _entry_scn=0x000000                                                 C:\MCC18\src\traditional\startup\c018i.c
                                           void                                                                             C:\MCC18\src\traditional\startup\c018i.c
                                           _entry (void)                                                                    C:\MCC18\src\traditional\startup\c018i.c
                                           {                                                                                C:\MCC18\src\traditional\startup\c018i.c
000000   eff0     GOTO      0x6de0         _asm goto _startup _endasm                                                       C:\MCC18\src\traditional\startup\c018i.c
000002   f036                                                                                                               
                                                                                                                            C:\MCC18\src\traditional\startup\c018i.c
000004   0012     RETURN    0x0            }                                                                                C:\MCC18\src\traditional\startup\c018i.c
                                           #pragma code _startup_scn                                                        C:\MCC18\src\traditional\startup\c018i.c
                                           void                                                                             C:\MCC18\src\traditional\startup\c018i.c
                                           _startup (void)                                                                  C:\MCC18\src\traditional\startup\c018i.c
                                           {                                                                                C:\MCC18\src\traditional\startup\c018i.c
                                             _asm                                                                           C:\MCC18\src\traditional\startup\c018i.c
                                               // Initialize the stack pointer                                              C:\MCC18\src\traditional\startup\c018i.c
006de0   ee1e     LFSR      0x1,0xe00          lfsr 1, _stack                                                               C:\MCC18\src\traditional\startup\c018i.c
006de2   f000                                                                                                               
006de4   ee2e     LFSR      0x2,0xe00          lfsr 2, _stack                                                               C:\MCC18\src\traditional\startup\c018i.c
006de6   f000                                                                                                               
                                                                                                                            C:\MCC18\src\traditional\startup\c018i.c
006de8   6af8     CLRF      0xf8,0x0           clrf TBLPTRU, 0 // 1st silicon doesn't do this on POR                        C:\MCC18\src\traditional\startup\c018i.c
                                                                                                                            C:\MCC18\src\traditional\startup\c018i.c
006dea   9c01     BCF       0x1,0x6,0x0        bcf __FPFLAGS,RND,0 // Initialize rounding flag for floating point libs      C:\MCC18\src\traditional\startup\c018i.c
                                                                                                                            C:\MCC18\src\traditional\startup\c018i.c
                                               _endasm                                                                      C:\MCC18\src\traditional\startup\c018i.c
006dec   ec59     CALL      0x6ab2,0x0         _do_cinit ();                                                                C:\MCC18\src\traditional\startup\c018i.c
006dee   f035                                                                                                               
                                                                                                                            C:\MCC18\src\traditional\startup\c018i.c
                                           loop:                                                                            C:\MCC18\src\traditional\startup\c018i.c
                                                                                                                            C:\MCC18\src\traditional\startup\c018i.c
                                             // If user defined __init is not found, the one in clib.lib will be used       C:\MCC18\src\traditional\startup\c018i.c
006df0   ec2c     CALL      0x6e58,0x0       __init ();                                                                     C:\MCC18\src\traditional\startup\c018i.c
006df2   f037                                                                                                               
                                                                                                                            C:\MCC18\src\traditional\startup\c018i.c
                                             // Call the user's main routine                                                C:\MCC18\src\traditional\startup\c018i.c
006df4   ec71     CALL      0x4ee2,0x0       main ();                                                                       C:\MCC18\src\traditional\startup\c018i.c
006df6   f027                                                                                                               
                                                                                                                            C:\MCC18\src\traditional\startup\c018i.c
006df8   d7fb     BRA       0x6df0           goto loop;                                                                     C:\MCC18\src\traditional\startup\c018i.c
006dfa   0012     RETURN    0x0            }                               /* end _startup() */                             C:\MCC18\src\traditional\startup\c018i.c
                                                                                                                            C:\MCC18\src\traditional\startup\c018i.c
                                           /* MPLAB-C18 initialized data memory support */                                  C:\MCC18\src\traditional\startup\c018i.c
                                           /* The linker will populate the _cinit table */                                  C:\MCC18\src\traditional\startup\c018i.c
                                           extern far rom struct                                                            C:\MCC18\src\traditional\startup\c018i.c
                                           {                                                                                C:\MCC18\src\traditional\startup\c018i.c
                                             unsigned short num_init;                                                       C:\MCC18\src\traditional\startup\c018i.c
                                             struct _init_entry                                                             C:\MCC18\src\traditional\startup\c018i.c
                                             {                                                                              C:\MCC18\src\traditional\startup\c018i.c
                                               unsigned long from;                                                          C:\MCC18\src\traditional\startup\c018i.c
                                               unsigned long to;                                                            C:\MCC18\src\traditional\startup\c018i.c
                                               unsigned long size;                                                          C:\MCC18\src\traditional\startup\c018i.c
                                             }                                                                              C:\MCC18\src\traditional\startup\c018i.c
                                             entries[];                                                                     C:\MCC18\src\traditional\startup\c018i.c
                                           }                                                                                C:\MCC18\src\traditional\startup\c018i.c
                                           _cinit;                                                                          C:\MCC18\src\traditional\startup\c018i.c
                                                                                                                            C:\MCC18\src\traditional\startup\c018i.c
                                           #pragma code _cinit_scn                                                          C:\MCC18\src\traditional\startup\c018i.c
                                           void                                                                             C:\MCC18\src\traditional\startup\c018i.c
                                           _do_cinit (void)                                                                 C:\MCC18\src\traditional\startup\c018i.c
                                           {                                                                                C:\MCC18\src\traditional\startup\c018i.c
                                             /* we'll make the assumption in the following code that these statics          C:\MCC18\src\traditional\startup\c018i.c
                                              * will be allocated into the same bank.                                       C:\MCC18\src\traditional\startup\c018i.c
                                              */                                                                            C:\MCC18\src\traditional\startup\c018i.c
                                             static short long prom;                                                        C:\MCC18\src\traditional\startup\c018i.c
                                             static unsigned short curr_byte;                                               C:\MCC18\src\traditional\startup\c018i.c
                                             static unsigned short curr_entry;                                              C:\MCC18\src\traditional\startup\c018i.c
                                             static short long data_ptr;                                                    C:\MCC18\src\traditional\startup\c018i.c
                                                                                                                            C:\MCC18\src\traditional\startup\c018i.c
                                             // Initialized data...                                                         C:\MCC18\src\traditional\startup\c018i.c
006ab2   0e2a     MOVLW     0x2a             TBLPTR = (short long)&_cinit;                                                  C:\MCC18\src\traditional\startup\c018i.c
006ab4   6ef6     MOVWF     0xf6,0x0                                                                                        
006ab6   0e00     MOVLW     0x0                                                                                             
006ab8   6ef7     MOVWF     0xf7,0x0                                                                                        
006aba   0e00     MOVLW     0x0                                                                                             
006abc   6ef8     MOVWF     0xf8,0x0                                                                                        
                                             _asm                                                                           C:\MCC18\src\traditional\startup\c018i.c
006abe   0100     MOVLB     0x0                movlb data_ptr                                                               C:\MCC18\src\traditional\startup\c018i.c
006ac0   0009     TBLRDPOSTINC                 tblrdpostinc                                                                 C:\MCC18\src\traditional\startup\c018i.c
006ac2   50f5     MOVF      0xf5,0x0,0x0       movf TABLAT, 0, 0                                                            C:\MCC18\src\traditional\startup\c018i.c
006ac4   6ffb     MOVWF     0xfb,0x1           movwf curr_entry, 1                                                          C:\MCC18\src\traditional\startup\c018i.c
006ac6   0009     TBLRDPOSTINC                 tblrdpostinc                                                                 C:\MCC18\src\traditional\startup\c018i.c
006ac8   50f5     MOVF      0xf5,0x0,0x0       movf TABLAT, 0, 0                                                            C:\MCC18\src\traditional\startup\c018i.c
006aca   6ffc     MOVWF     0xfc,0x1           movwf curr_entry+1, 1                                                        C:\MCC18\src\traditional\startup\c018i.c
                                             _endasm                                                                        C:\MCC18\src\traditional\startup\c018i.c
                                               //while (curr_entry)                                                         C:\MCC18\src\traditional\startup\c018i.c
                                               //{                                                                          C:\MCC18\src\traditional\startup\c018i.c
                                               test:                                                                        C:\MCC18\src\traditional\startup\c018i.c
                                               _asm                                                                         C:\MCC18\src\traditional\startup\c018i.c
006acc   e103     BNZ       0x6ad4              bnz 3                                                                       C:\MCC18\src\traditional\startup\c018i.c
006ace   67fb     TSTFSZ    0xfb,0x1           tstfsz curr_entry, 1                                                         C:\MCC18\src\traditional\startup\c018i.c
006ad0   d001     BRA       0x6ad4             bra 1                                                                        C:\MCC18\src\traditional\startup\c018i.c
                                               _endasm                                                                      C:\MCC18\src\traditional\startup\c018i.c
006ad2   d03d     BRA       0x6b4e             goto done;                                                                   C:\MCC18\src\traditional\startup\c018i.c
                                                 /* Count down so we only have to look up the data in _cinit                C:\MCC18\src\traditional\startup\c018i.c
                                                  * once.                                                                   C:\MCC18\src\traditional\startup\c018i.c
                                                  *                                                                         C:\MCC18\src\traditional\startup\c018i.c
                                                  * At this point we know that TBLPTR points to the top of the current      C:\MCC18\src\traditional\startup\c018i.c
                                                  * entry in _cinit, so we can just start reading the from, to, and         C:\MCC18\src\traditional\startup\c018i.c
                                                  * size values.                                                            C:\MCC18\src\traditional\startup\c018i.c
                                                  */                                                                        C:\MCC18\src\traditional\startup\c018i.c
                                                 _asm                                                                       C:\MCC18\src\traditional\startup\c018i.c
                                           	/* read the source address */                                                   C:\MCC18\src\traditional\startup\c018i.c
006ad4   0009     TBLRDPOSTINC             	tblrdpostinc                                                                    C:\MCC18\src\traditional\startup\c018i.c
006ad6   50f5     MOVF      0xf5,0x0,0x0   	movf TABLAT, 0, 0                                                               C:\MCC18\src\traditional\startup\c018i.c
006ad8   6ff6     MOVWF     0xf6,0x1       	movwf prom, 1                                                                   C:\MCC18\src\traditional\startup\c018i.c
006ada   0009     TBLRDPOSTINC             	tblrdpostinc                                                                    C:\MCC18\src\traditional\startup\c018i.c
006adc   50f5     MOVF      0xf5,0x0,0x0   	movf TABLAT, 0, 0                                                               C:\MCC18\src\traditional\startup\c018i.c
006ade   6ff7     MOVWF     0xf7,0x1       	movwf prom+1, 1                                                                 C:\MCC18\src\traditional\startup\c018i.c
006ae0   0009     TBLRDPOSTINC             	tblrdpostinc                                                                    C:\MCC18\src\traditional\startup\c018i.c
006ae2   50f5     MOVF      0xf5,0x0,0x0   	movf TABLAT, 0, 0                                                               C:\MCC18\src\traditional\startup\c018i.c
006ae4   6ff8     MOVWF     0xf8,0x1       	movwf prom+2, 1                                                                 C:\MCC18\src\traditional\startup\c018i.c
                                           	/* skip a byte since it's stored as a 32bit int */                              C:\MCC18\src\traditional\startup\c018i.c
006ae6   0009     TBLRDPOSTINC             	tblrdpostinc                                                                    C:\MCC18\src\traditional\startup\c018i.c
                                           	/* read the destination address directly into FSR0 */                           C:\MCC18\src\traditional\startup\c018i.c
006ae8   0009     TBLRDPOSTINC             	tblrdpostinc                                                                    C:\MCC18\src\traditional\startup\c018i.c
006aea   50f5     MOVF      0xf5,0x0,0x0   	movf TABLAT, 0, 0                                                               C:\MCC18\src\traditional\startup\c018i.c
006aec   6ee9     MOVWF     0xe9,0x0       	movwf FSR0L, 0                                                                  C:\MCC18\src\traditional\startup\c018i.c
006aee   0009     TBLRDPOSTINC             	tblrdpostinc                                                                    C:\MCC18\src\traditional\startup\c018i.c
006af0   50f5     MOVF      0xf5,0x0,0x0   	movf TABLAT, 0, 0                                                               C:\MCC18\src\traditional\startup\c018i.c
006af2   6eea     MOVWF     0xea,0x0       	movwf FSR0H, 0                                                                  C:\MCC18\src\traditional\startup\c018i.c
                                           	/* skip two bytes since it's stored as a 32bit int */                           C:\MCC18\src\traditional\startup\c018i.c
006af4   0009     TBLRDPOSTINC             	tblrdpostinc                                                                    C:\MCC18\src\traditional\startup\c018i.c
006af6   0009     TBLRDPOSTINC             	tblrdpostinc                                                                    C:\MCC18\src\traditional\startup\c018i.c
                                           	/* read the destination address directly into FSR0 */                           C:\MCC18\src\traditional\startup\c018i.c
006af8   0009     TBLRDPOSTINC             	tblrdpostinc                                                                    C:\MCC18\src\traditional\startup\c018i.c
006afa   50f5     MOVF      0xf5,0x0,0x0   	movf TABLAT, 0, 0                                                               C:\MCC18\src\traditional\startup\c018i.c
006afc   6ff9     MOVWF     0xf9,0x1       	movwf curr_byte, 1                                                              C:\MCC18\src\traditional\startup\c018i.c
006afe   0009     TBLRDPOSTINC             	tblrdpostinc                                                                    C:\MCC18\src\traditional\startup\c018i.c
006b00   50f5     MOVF      0xf5,0x0,0x0   	movf TABLAT, 0, 0                                                               C:\MCC18\src\traditional\startup\c018i.c
006b02   6ffa     MOVWF     0xfa,0x1       	movwf curr_byte+1, 1                                                            C:\MCC18\src\traditional\startup\c018i.c
                                           	/* skip two bytes since it's stored as a 32bit int */                           C:\MCC18\src\traditional\startup\c018i.c
006b04   0009     TBLRDPOSTINC             	tblrdpostinc                                                                    C:\MCC18\src\traditional\startup\c018i.c
006b06   0009     TBLRDPOSTINC             	tblrdpostinc                                                                    C:\MCC18\src\traditional\startup\c018i.c
                                                 _endasm                                                                    C:\MCC18\src\traditional\startup\c018i.c
                                                 //prom = data_ptr->from;                                                   C:\MCC18\src\traditional\startup\c018i.c
                                                 //FSR0 = data_ptr->to;                                                     C:\MCC18\src\traditional\startup\c018i.c
                                                 //curr_byte = (unsigned short) data_ptr->size;                             C:\MCC18\src\traditional\startup\c018i.c
                                                 /* the table pointer now points to the next entry. Save it                 C:\MCC18\src\traditional\startup\c018i.c
                                                  * off since we'll be using the table pointer to do the copying            C:\MCC18\src\traditional\startup\c018i.c
                                                  * for the entry.                                                          C:\MCC18\src\traditional\startup\c018i.c
                                                  */                                                                        C:\MCC18\src\traditional\startup\c018i.c
006b08   cff6     MOVFF     0xff6,0xfd           data_ptr = TBLPTR;                                                         C:\MCC18\src\traditional\startup\c018i.c
006b0a   f0fd                                                                                                               
006b0c   cff7     MOVFF     0xff7,0xfe                                                                                      
006b0e   f0fe                                                                                                               
006b10   cff8     MOVFF     0xff8,0xff                                                                                      
006b12   f0ff                                                                                                               
                                                                                                                            C:\MCC18\src\traditional\startup\c018i.c
                                                 /* now assign the source address to the table pointer */                   C:\MCC18\src\traditional\startup\c018i.c
006b14   c0f6     MOVFF     0xf6,0xff6           TBLPTR = prom;                                                             C:\MCC18\src\traditional\startup\c018i.c
006b16   fff6                                                                                                               
006b18   c0f7     MOVFF     0xf7,0xff7                                                                                      
006b1a   fff7                                                                                                               
006b1c   c0f8     MOVFF     0xf8,0xff8                                                                                      
006b1e   fff8                                                                                                               
                                                                                                                            C:\MCC18\src\traditional\startup\c018i.c
                                                 /* do the copy loop */                                                     C:\MCC18\src\traditional\startup\c018i.c
                                                 _asm                                                                       C:\MCC18\src\traditional\startup\c018i.c
                                                   // determine if we have any more bytes to copy                           C:\MCC18\src\traditional\startup\c018i.c
006b20   0100     MOVLB     0x0            	movlb curr_byte                                                                 C:\MCC18\src\traditional\startup\c018i.c
006b22   53f9     MOVF      0xf9,0x1,0x1   	movf curr_byte, 1, 1                                                            C:\MCC18\src\traditional\startup\c018i.c
                                           copy_loop:                                                                       C:\MCC18\src\traditional\startup\c018i.c
006b24   e102     BNZ       0x6b2a         	bnz 2 // copy_one_byte                                                          C:\MCC18\src\traditional\startup\c018i.c
006b26   53fa     MOVF      0xfa,0x1,0x1   	movf curr_byte + 1, 1, 1                                                        C:\MCC18\src\traditional\startup\c018i.c
006b28   e007     BZ        0x6b38         	bz 7 // done_copying                                                            C:\MCC18\src\traditional\startup\c018i.c
                                                                                                                            C:\MCC18\src\traditional\startup\c018i.c
                                           copy_one_byte:                                                                   C:\MCC18\src\traditional\startup\c018i.c
006b2a   0009     TBLRDPOSTINC             	tblrdpostinc                                                                    C:\MCC18\src\traditional\startup\c018i.c
006b2c   50f5     MOVF      0xf5,0x0,0x0   	movf TABLAT, 0, 0                                                               C:\MCC18\src\traditional\startup\c018i.c
006b2e   6eee     MOVWF     0xee,0x0       	movwf POSTINC0, 0                                                               C:\MCC18\src\traditional\startup\c018i.c
                                                                                                                            C:\MCC18\src\traditional\startup\c018i.c
                                           	// decrement byte counter                                                       C:\MCC18\src\traditional\startup\c018i.c
006b30   07f9     DECF      0xf9,0x1,0x1   	decf curr_byte, 1, 1                                                            C:\MCC18\src\traditional\startup\c018i.c
006b32   e2f8     BC        0x6b24         	bc -8 // copy_loop                                                              C:\MCC18\src\traditional\startup\c018i.c
006b34   07fa     DECF      0xfa,0x1,0x1           decf curr_byte + 1, 1, 1                                                 C:\MCC18\src\traditional\startup\c018i.c
006b36   d7f9     BRA       0x6b2a         	bra -7 // copy_one_byte                                                         C:\MCC18\src\traditional\startup\c018i.c
                                                                                                                            C:\MCC18\src\traditional\startup\c018i.c
                                           done_copying:                                                                    C:\MCC18\src\traditional\startup\c018i.c
                                                                                                                            C:\MCC18\src\traditional\startup\c018i.c
                                                 _endasm                                                                    C:\MCC18\src\traditional\startup\c018i.c
                                                 /* restore the table pointer for the next entry */                         C:\MCC18\src\traditional\startup\c018i.c
006b38   c0fd     MOVFF     0xfd,0xff6           TBLPTR = data_ptr;                                                         C:\MCC18\src\traditional\startup\c018i.c
006b3a   fff6                                                                                                               
006b3c   c0fe     MOVFF     0xfe,0xff7                                                                                      
006b3e   fff7                                                                                                               
006b40   c0ff     MOVFF     0xff,0xff8                                                                                      
006b42   fff8                                                                                                               
                                                 /* next entry... */                                                        C:\MCC18\src\traditional\startup\c018i.c
006b44   0100     MOVLB     0x0                  curr_entry--;                                                              C:\MCC18\src\traditional\startup\c018i.c
006b46   07fb     DECF      0xfb,0x1,0x1                                                                                    
006b48   0e00     MOVLW     0x0                                                                                             
006b4a   5bfc     SUBWFB    0xfc,0x1,0x1                                                                                    
006b4c   d7bf     BRA       0x6acc               goto test;                                                                 C:\MCC18\src\traditional\startup\c018i.c
                                           done:                                                                            C:\MCC18\src\traditional\startup\c018i.c
                                           ;                                                                                C:\MCC18\src\traditional\startup\c018i.c
006b4e   0012     RETURN    0x0            }                                                                                C:\MCC18\src\traditional\startup\c018i.c
                                           /* Compile options:  -ml (Large code model) */                                   D:\elektro\pic\mp3 preprcavac\ridici2 program\main.c
                                                                                                                            D:\elektro\pic\mp3 preprcavac\ridici2 program\main.c
                                           #pragma config WDT = OFF                                                         D:\elektro\pic\mp3 preprcavac\ridici2 program\main.c
                                           #pragma config PWRT = ON                                                         D:\elektro\pic\mp3 preprcavac\ridici2 program\main.c
                                           #pragma config MCLRE = ON                                                        D:\elektro\pic\mp3 preprcavac\ridici2 program\main.c
                                           #pragma config LPT1OSC = OFF                                                     D:\elektro\pic\mp3 preprcavac\ridici2 program\main.c
                                           #pragma config PBADEN = OFF                                                      D:\elektro\pic\mp3 preprcavac\ridici2 program\main.c
                                           #pragma config LVP = OFF                                                         D:\elektro\pic\mp3 preprcavac\ridici2 program\main.c
                                           #pragma config OSC = HS                                                          D:\elektro\pic\mp3 preprcavac\ridici2 program\main.c
                                           #pragma config CPD = OFF                                                         D:\elektro\pic\mp3 preprcavac\ridici2 program\main.c
                                           #pragma config WRTD = OFF                                                        D:\elektro\pic\mp3 preprcavac\ridici2 program\main.c
                                                                                                                            D:\elektro\pic\mp3 preprcavac\ridici2 program\main.c
                                           ////////////////////////////////////////////////////////////////////////         D:\elektro\pic\mp3 preprcavac\ridici2 program\main.c
                                           void InterruptHandlerHigh (void);                                                D:\elektro\pic\mp3 preprcavac\ridici2 program\main.c
                                           void NastartujOdpocet (void);                                                    D:\elektro\pic\mp3 preprcavac\ridici2 program\main.c
                                           void str2ram(static char *dest, const static char rom *src);                     D:\elektro\pic\mp3 preprcavac\ridici2 program\main.c
                                           void WrUsart(unsigned char dato);                                                D:\elektro\pic\mp3 preprcavac\ridici2 program\main.c
                                           unsigned char RdUsart(void);                                                     D:\elektro\pic\mp3 preprcavac\ridici2 program\main.c
                                           void VyprazdniBufferSouboru(void);                                               D:\elektro\pic\mp3 preprcavac\ridici2 program\main.c
                                           void NastavStavPrehravani(void);                                                 D:\elektro\pic\mp3 preprcavac\ridici2 program\main.c
                                           void CtiStavPrehravani(void);                                                    D:\elektro\pic\mp3 preprcavac\ridici2 program\main.c
                                           void PisHexa(unsigned char hodnota);                                             D:\elektro\pic\mp3 preprcavac\ridici2 program\main.c
                                           unsigned char EEPROMRead(unsigned char Adresa);                                  D:\elektro\pic\mp3 preprcavac\ridici2 program\main.c
                                           void EEPROMWrite(unsigned char Adresa,unsigned char Dato);                       D:\elektro\pic\mp3 preprcavac\ridici2 program\main.c
                                           void UlozKonfiguraci(void);                                                      D:\elektro\pic\mp3 preprcavac\ridici2 program\main.c
                                                                                                                            D:\elektro\pic\mp3 preprcavac\ridici2 program\main.c
                                                                                                                            D:\elektro\pic\mp3 preprcavac\ridici2 program\main.c
                                           #include <delays.h>                                                              D:\elektro\pic\mp3 preprcavac\ridici2 program\main.c
                                           #include <pwm.h>                                                                 D:\elektro\pic\mp3 preprcavac\ridici2 program\main.c
                                           #include <timers.h>                                                              D:\elektro\pic\mp3 preprcavac\ridici2 program\main.c
                                           #include <string.h>                                                              D:\elektro\pic\mp3 preprcavac\ridici2 program\main.c
                                           #include <usart.h>                                                               D:\elektro\pic\mp3 preprcavac\ridici2 program\main.c
                                           #include "promenne.h"                                                            D:\elektro\pic\mp3 preprcavac\ridici2 program\main.c
                                           #include "font-maly.h"                                                           D:\elektro\pic\mp3 preprcavac\ridici2 program\main.c
                                           #include "font-velky.h"                                                          D:\elektro\pic\mp3 preprcavac\ridici2 program\main.c
                                           #include "lcd.c"                                                                 D:\elektro\pic\mp3 preprcavac\ridici2 program\main.c
                                           #include "menu.c"                                                                D:\elektro\pic\mp3 preprcavac\ridici2 program\main.c
                                           #include "standby.c"                                                             D:\elektro\pic\mp3 preprcavac\ridici2 program\main.c
                                           #include "nastaveni.c"                                                           D:\elektro\pic\mp3 preprcavac\ridici2 program\main.c
                                           #include "moznosti.c"                                                            D:\elektro\pic\mp3 preprcavac\ridici2 program\main.c
                                           #include "uvod.c"                                                                D:\elektro\pic\mp3 preprcavac\ridici2 program\main.c
                                           #include "vyberoddilu.c"                                                         D:\elektro\pic\mp3 preprcavac\ridici2 program\main.c
                                           #include "prehravani.c"                                                          D:\elektro\pic\mp3 preprcavac\ridici2 program\main.c
                                           #include "pruzkumnik.c"                                                          D:\elektro\pic\mp3 preprcavac\ridici2 program\main.c
                                                                                                                            D:\elektro\pic\mp3 preprcavac\ridici2 program\main.c
                                                                                                                            D:\elektro\pic\mp3 preprcavac\ridici2 program\main.c
                                           ////////////////////////////////////////////////////////////////////////         D:\elektro\pic\mp3 preprcavac\ridici2 program\main.c
                                           ////////////////////////////////////////////////////////////////////////         D:\elektro\pic\mp3 preprcavac\ridici2 program\main.c
                                                                                                                            D:\elektro\pic\mp3 preprcavac\ridici2 program\main.c
                                           #pragma code InterruptVectorHigh = 0x08                                          D:\elektro\pic\mp3 preprcavac\ridici2 program\main.c
                                           void                                                                             D:\elektro\pic\mp3 preprcavac\ridici2 program\main.c
                                           InterruptVectorHigh (void)                                                       D:\elektro\pic\mp3 preprcavac\ridici2 program\main.c
                                           {                                                                                D:\elektro\pic\mp3 preprcavac\ridici2 program\main.c
                                             _asm                                                                           D:\elektro\pic\mp3 preprcavac\ridici2 program\main.c
000008   ef5e     GOTO      0x48bc             goto InterruptHandlerHigh //jump to interrupt routine                        D:\elektro\pic\mp3 preprcavac\ridici2 program\main.c
00000a   f024                                                                                                               
                                             _endasm                                                                        D:\elektro\pic\mp3 preprcavac\ridici2 program\main.c
00000c   0012     RETURN    0x0            }                                                                                D:\elektro\pic\mp3 preprcavac\ridici2 program\main.c
                                                                                                                            D:\elektro\pic\mp3 preprcavac\ridici2 program\main.c
                                           ////////////////////////////////////////////////////////////////////////         D:\elektro\pic\mp3 preprcavac\ridici2 program\main.c
                                           ////////////////////////////////////////////////////////////////////////         D:\elektro\pic\mp3 preprcavac\ridici2 program\main.c
                                           // High priority interrupt routine                                               D:\elektro\pic\mp3 preprcavac\ridici2 program\main.c
                                                                                                                            D:\elektro\pic\mp3 preprcavac\ridici2 program\main.c
                                           #pragma code                                                                     D:\elektro\pic\mp3 preprcavac\ridici2 program\main.c
                                           #pragma interrupt InterruptHandlerHigh                                           D:\elektro\pic\mp3 preprcavac\ridici2 program\main.c
                                                                                                                            D:\elektro\pic\mp3 preprcavac\ridici2 program\main.c
0048bc   cfda     MOVFF     0xfda,0xfe4    void InterruptHandlerHigh (){                                                    D:\elektro\pic\mp3 preprcavac\ridici2 program\main.c
0048be   ffe4                                                                                                               
0048c0   cfe2     MOVFF     0xfe2,0xfda                                                                                     
0048c2   ffda                                                                                                               
0048c4   cfe9     MOVFF     0xfe9,0xfe4                                                                                     
0048c6   ffe4                                                                                                               
0048c8   cfea     MOVFF     0xfea,0xfe4                                                                                     
0048ca   ffe4                                                                                                               
0048cc   cff6     MOVFF     0xff6,0xfe4                                                                                     
0048ce   ffe4                                                                                                               
0048d0   cff7     MOVFF     0xff7,0xfe4                                                                                     
0048d2   ffe4                                                                                                               
0048d4   cff8     MOVFF     0xff8,0xfe4                                                                                     
0048d6   ffe4                                                                                                               
0048d8   cff5     MOVFF     0xff5,0xfe4                                                                                     
0048da   ffe4                                                                                                               
0048dc   cff3     MOVFF     0xff3,0xfe4                                                                                     
0048de   ffe4                                                                                                               
0048e0   cff4     MOVFF     0xff4,0xfe4                                                                                     
0048e2   ffe4                                                                                                               
0048e4   cffa     MOVFF     0xffa,0xfe4                                                                                     
0048e6   ffe4                                                                                                               
0048e8   cffb     MOVFF     0xffb,0xfe4                                                                                     
0048ea   ffe4                                                                                                               
0048ec   ee00     LFSR      0x0,0x0                                                                                         
0048ee   f000                                                                                                               
0048f0   0e14     MOVLW     0x14                                                                                            
0048f2   04e8     DECF      0xe8,0x0,0x0                                                                                    
0048f4   e303     BNC       0x48fc                                                                                          
0048f6   cfee     MOVFF     0xfee,0xfe4                                                                                     
0048f8   ffe4                                                                                                               
0048fa   d7fb     BRA       0x48f2                                                                                          
0048fc   ee00     LFSR      0x0,0x14                                                                                        
0048fe   f014                                                                                                               
004900   0e06     MOVLW     0x6                                                                                             
004902   04e8     DECF      0xe8,0x0,0x0                                                                                    
004904   e303     BNC       0x490c                                                                                          
004906   cfee     MOVFF     0xfee,0xfe4                                                                                     
004908   ffe4                                                                                                               
00490a   d7fb     BRA       0x4902                                                                                          
00490c   52e6     MOVF      0xe6,0x1,0x0                                                                                    
00490e   a4f2     BTFSS     0xf2,0x2,0x0     if (INTCONbits.TMR0IF){				//check for TMR0 overflow                           D:\elektro\pic\mp3 preprcavac\ridici2 program\main.c
004910   d0c7     BRA       0x4aa0                                                                                          
004912   0e67     MOVLW     0x67           		TMR0L=0x67;                                                                    D:\elektro\pic\mp3 preprcavac\ridici2 program\main.c
004914   6ed6     MOVWF     0xd6,0x0                                                                                        
004916   0e9e     MOVLW     0x9e           		TMR0H=0x9e;		//; 5ms                                                           D:\elektro\pic\mp3 preprcavac\ridici2 program\main.c
004918   6ed7     MOVWF     0xd7,0x0                                                                                        
                                                                                                                            D:\elektro\pic\mp3 preprcavac\ridici2 program\main.c
00491a   94f2     BCF       0xf2,0x2,0x0       INTCONbits.TMR0IF = 0;		//clear interrupt flag                               D:\elektro\pic\mp3 preprcavac\ridici2 program\main.c
00491c   0100     MOVLB     0x0                Flags.Bit.Timeout = 1;		//indicate timeout                                   D:\elektro\pic\mp3 preprcavac\ridici2 program\main.c
00491e   81ef     BSF       0xef,0x0,0x1                                                                                    
                                           		                                                                               D:\elektro\pic\mp3 preprcavac\ridici2 program\main.c
                                           		// poku dpri predchozim testovani bylo tlacitko v nule a ted je v jednicce,    D:\elektro\pic\mp3 preprcavac\ridici2 program\main.c
                                           		// tak nastavime priznak stisku...                                             D:\elektro\pic\mp3 preprcavac\ridici2 program\main.c
004920   0100     MOVLB     0x0            		if ((TLPred.Bit.TlVolUp==0) 	&& (ATlVolUp==1))		{Flags.Bit.TlVolUp=1;}         D:\elektro\pic\mp3 preprcavac\ridici2 program\main.c
004922   51ce     MOVF      0xce,0x0,0x1                                                                                    
004924   0b01     ANDLW     0x1                                                                                             
004926   e105     BNZ       0x4932                                                                                          
004928   5084     MOVF      0x84,0x0,0x0                                                                                    
00492a   0b02     ANDLW     0x2                                                                                             
00492c   e002     BZ        0x4932                                                                                          
00492e   0100     MOVLB     0x0                                                                                             
004930   83ef     BSF       0xef,0x1,0x1                                                                                    
004932   0100     MOVLB     0x0            		if ((TLPred.Bit.TlVolDown==0) && (ATlVolDown==1))	{Flags.Bit.TlVolDown=1;}     D:\elektro\pic\mp3 preprcavac\ridici2 program\main.c
004934   51ce     MOVF      0xce,0x0,0x1                                                                                    
004936   0b02     ANDLW     0x2                                                                                             
004938   e105     BNZ       0x4944                                                                                          
00493a   5084     MOVF      0x84,0x0,0x0                                                                                    
00493c   0b01     ANDLW     0x1                                                                                             
00493e   e002     BZ        0x4944                                                                                          
004940   0100     MOVLB     0x0                                                                                             
004942   85ef     BSF       0xef,0x2,0x1                                                                                    
004944   0100     MOVLB     0x0            		if ((TLPred.Bit.TlUp==0) 			&& (ATlUp==1))			{Flags.Bit.TlUp=1;}               D:\elektro\pic\mp3 preprcavac\ridici2 program\main.c
004946   51ce     MOVF      0xce,0x0,0x1                                                                                    
004948   0b04     ANDLW     0x4                                                                                             
00494a   e105     BNZ       0x4956                                                                                          
00494c   5081     MOVF      0x81,0x0,0x0                                                                                    
00494e   0b80     ANDLW     0x80                                                                                            
004950   e002     BZ        0x4956                                                                                          
004952   0100     MOVLB     0x0                                                                                             
004954   87ef     BSF       0xef,0x3,0x1                                                                                    
004956   0100     MOVLB     0x0            		if ((TLPred.Bit.TlDown==0) 		&& (ATlDown==1))		{Flags.Bit.TlDown=1;}           D:\elektro\pic\mp3 preprcavac\ridici2 program\main.c
004958   51ce     MOVF      0xce,0x0,0x1                                                                                    
00495a   0b08     ANDLW     0x8                                                                                             
00495c   e105     BNZ       0x4968                                                                                          
00495e   5081     MOVF      0x81,0x0,0x0                                                                                    
004960   0b40     ANDLW     0x40                                                                                            
004962   e002     BZ        0x4968                                                                                          
004964   0100     MOVLB     0x0                                                                                             
004966   89ef     BSF       0xef,0x4,0x1                                                                                    
004968   0100     MOVLB     0x0            		if ((TLPred.Bit.TlLeft==0) 		&& (ATlLeft==1))		{Flags.Bit.TlLeft=1;}           D:\elektro\pic\mp3 preprcavac\ridici2 program\main.c
00496a   51ce     MOVF      0xce,0x0,0x1                                                                                    
00496c   0b10     ANDLW     0x10                                                                                            
00496e   e105     BNZ       0x497a                                                                                          
004970   5081     MOVF      0x81,0x0,0x0                                                                                    
004972   0b20     ANDLW     0x20                                                                                            
004974   e002     BZ        0x497a                                                                                          
004976   0100     MOVLB     0x0                                                                                             
004978   8bef     BSF       0xef,0x5,0x1                                                                                    
00497a   0100     MOVLB     0x0            		if ((TLPred.Bit.TlPlay==0) 		&& (ATlPlay==1))		{Flags.Bit.TlPlay=1;}           D:\elektro\pic\mp3 preprcavac\ridici2 program\main.c
00497c   51ce     MOVF      0xce,0x0,0x1                                                                                    
00497e   0b20     ANDLW     0x20                                                                                            
004980   e105     BNZ       0x498c                                                                                          
004982   5081     MOVF      0x81,0x0,0x0                                                                                    
004984   0b10     ANDLW     0x10                                                                                            
004986   e002     BZ        0x498c                                                                                          
004988   0100     MOVLB     0x0                                                                                             
00498a   8def     BSF       0xef,0x6,0x1                                                                                    
00498c   0100     MOVLB     0x0            		if ((TLPred.Bit.TlStop==0) 		&& (ATlStop==1))		{Flags.Bit.TlStop=1;}           D:\elektro\pic\mp3 preprcavac\ridici2 program\main.c
00498e   51ce     MOVF      0xce,0x0,0x1                                                                                    
004990   0b40     ANDLW     0x40                                                                                            
004992   e105     BNZ       0x499e                                                                                          
004994   5081     MOVF      0x81,0x0,0x0                                                                                    
004996   0b08     ANDLW     0x8                                                                                             
004998   e002     BZ        0x499e                                                                                          
00499a   0100     MOVLB     0x0                                                                                             
00499c   8fef     BSF       0xef,0x7,0x1                                                                                    
00499e   0100     MOVLB     0x0            		if ((TLPred.Bit.TlRight==0) 	&& (ATlRight==1))		{Flags.Bit.TlRight=1;}         D:\elektro\pic\mp3 preprcavac\ridici2 program\main.c
0049a0   51ce     MOVF      0xce,0x0,0x1                                                                                    
0049a2   0b80     ANDLW     0x80                                                                                            
0049a4   e105     BNZ       0x49b0                                                                                          
0049a6   5081     MOVF      0x81,0x0,0x0                                                                                    
0049a8   0b04     ANDLW     0x4                                                                                             
0049aa   e002     BZ        0x49b0                                                                                          
0049ac   0100     MOVLB     0x0                                                                                             
0049ae   81f0     BSF       0xf0,0x0,0x1                                                                                    
0049b0   0100     MOVLB     0x0            		if ((TLPred.Bit.TlMenu==0) 		&& (ATlMenu==1))		{Flags.Bit.TlMenu=1;}           D:\elektro\pic\mp3 preprcavac\ridici2 program\main.c
0049b2   51cf     MOVF      0xcf,0x0,0x1                                                                                    
0049b4   0b01     ANDLW     0x1                                                                                             
0049b6   e105     BNZ       0x49c2                                                                                          
0049b8   5081     MOVF      0x81,0x0,0x0                                                                                    
0049ba   0b02     ANDLW     0x2                                                                                             
0049bc   e002     BZ        0x49c2                                                                                          
0049be   0100     MOVLB     0x0                                                                                             
0049c0   83f0     BSF       0xf0,0x1,0x1                                                                                    
                                                                                                                            D:\elektro\pic\mp3 preprcavac\ridici2 program\main.c
0049c2   0100     MOVLB     0x0            		TLPred.Bit.TlVolUp		=ATlVolUp;                                                 D:\elektro\pic\mp3 preprcavac\ridici2 program\main.c
0049c4   91ce     BCF       0xce,0x0,0x1                                                                                    
0049c6   5084     MOVF      0x84,0x0,0x0                                                                                    
0049c8   0b02     ANDLW     0x2                                                                                             
0049ca   e001     BZ        0x49ce                                                                                          
0049cc   81ce     BSF       0xce,0x0,0x1                                                                                    
0049ce   93ce     BCF       0xce,0x1,0x1   		TLPred.Bit.TlVolDown	=ATlVolDown;                                              D:\elektro\pic\mp3 preprcavac\ridici2 program\main.c
0049d0   5084     MOVF      0x84,0x0,0x0                                                                                    
0049d2   0b01     ANDLW     0x1                                                                                             
0049d4   e001     BZ        0x49d8                                                                                          
0049d6   83ce     BSF       0xce,0x1,0x1                                                                                    
0049d8   95ce     BCF       0xce,0x2,0x1   		TLPred.Bit.TlUp				=ATlUp;                                                     D:\elektro\pic\mp3 preprcavac\ridici2 program\main.c
0049da   5081     MOVF      0x81,0x0,0x0                                                                                    
0049dc   0b80     ANDLW     0x80                                                                                            
0049de   e001     BZ        0x49e2                                                                                          
0049e0   85ce     BSF       0xce,0x2,0x1                                                                                    
0049e2   97ce     BCF       0xce,0x3,0x1   		TLPred.Bit.TlDown			=ATlDown;                                                  D:\elektro\pic\mp3 preprcavac\ridici2 program\main.c
0049e4   5081     MOVF      0x81,0x0,0x0                                                                                    
0049e6   0b40     ANDLW     0x40                                                                                            
0049e8   e001     BZ        0x49ec                                                                                          
0049ea   87ce     BSF       0xce,0x3,0x1                                                                                    
0049ec   99ce     BCF       0xce,0x4,0x1   		TLPred.Bit.TlLeft			=ATlLeft;                                                  D:\elektro\pic\mp3 preprcavac\ridici2 program\main.c
0049ee   5081     MOVF      0x81,0x0,0x0                                                                                    
0049f0   0b20     ANDLW     0x20                                                                                            
0049f2   e001     BZ        0x49f6                                                                                          
0049f4   89ce     BSF       0xce,0x4,0x1                                                                                    
0049f6   9bce     BCF       0xce,0x5,0x1   		TLPred.Bit.TlPlay			=ATlPlay;                                                  D:\elektro\pic\mp3 preprcavac\ridici2 program\main.c
0049f8   5081     MOVF      0x81,0x0,0x0                                                                                    
0049fa   0b10     ANDLW     0x10                                                                                            
0049fc   e001     BZ        0x4a00                                                                                          
0049fe   8bce     BSF       0xce,0x5,0x1                                                                                    
004a00   9dce     BCF       0xce,0x6,0x1   		TLPred.Bit.TlStop			=ATlStop;                                                  D:\elektro\pic\mp3 preprcavac\ridici2 program\main.c
004a02   5081     MOVF      0x81,0x0,0x0                                                                                    
004a04   0b08     ANDLW     0x8                                                                                             
004a06   e001     BZ        0x4a0a                                                                                          
004a08   8dce     BSF       0xce,0x6,0x1                                                                                    
004a0a   9fce     BCF       0xce,0x7,0x1   		TLPred.Bit.TlRight		=ATlRight;                                                 D:\elektro\pic\mp3 preprcavac\ridici2 program\main.c
004a0c   5081     MOVF      0x81,0x0,0x0                                                                                    
004a0e   0b04     ANDLW     0x4                                                                                             
004a10   e001     BZ        0x4a14                                                                                          
004a12   8fce     BSF       0xce,0x7,0x1                                                                                    
004a14   91cf     BCF       0xcf,0x0,0x1   		TLPred.Bit.TlMenu			=ATlMenu;                                                  D:\elektro\pic\mp3 preprcavac\ridici2 program\main.c
004a16   5081     MOVF      0x81,0x0,0x0                                                                                    
004a18   0b02     ANDLW     0x2                                                                                             
004a1a   e001     BZ        0x4a1e                                                                                          
004a1c   81cf     BSF       0xcf,0x0,0x1                                                                                    
                                                                                                                            D:\elektro\pic\mp3 preprcavac\ridici2 program\main.c
                                           		if (ATlVolUp                                                                   D:\elektro\pic\mp3 preprcavac\ridici2 program\main.c
                                           			|| ATlVolDown                                                                 D:\elektro\pic\mp3 preprcavac\ridici2 program\main.c
004a1e   5084     MOVF      0x84,0x0,0x0   			|| ATlUp                                                                      D:\elektro\pic\mp3 preprcavac\ridici2 program\main.c
004a20   0b02     ANDLW     0x2                                                                                             
004a22   e118     BNZ       0x4a54                                                                                          
004a24   5084     MOVF      0x84,0x0,0x0                                                                                    
004a26   0b01     ANDLW     0x1                                                                                             
004a28   e115     BNZ       0x4a54                                                                                          
004a2a   5081     MOVF      0x81,0x0,0x0   			|| ATlDown                                                                    D:\elektro\pic\mp3 preprcavac\ridici2 program\main.c
004a2c   0b80     ANDLW     0x80                                                                                            
004a2e   e112     BNZ       0x4a54                                                                                          
004a30   5081     MOVF      0x81,0x0,0x0   			|| ATlLeft                                                                    D:\elektro\pic\mp3 preprcavac\ridici2 program\main.c
004a32   0b40     ANDLW     0x40                                                                                            
004a34   e10f     BNZ       0x4a54                                                                                          
004a36   5081     MOVF      0x81,0x0,0x0   			|| ATlPlay                                                                    D:\elektro\pic\mp3 preprcavac\ridici2 program\main.c
004a38   0b20     ANDLW     0x20                                                                                            
004a3a   e10c     BNZ       0x4a54                                                                                          
004a3c   5081     MOVF      0x81,0x0,0x0   			|| ATlStop                                                                    D:\elektro\pic\mp3 preprcavac\ridici2 program\main.c
004a3e   0b10     ANDLW     0x10                                                                                            
004a40   e109     BNZ       0x4a54                                                                                          
004a42   5081     MOVF      0x81,0x0,0x0   			|| ATlRight                                                                   D:\elektro\pic\mp3 preprcavac\ridici2 program\main.c
004a44   0b08     ANDLW     0x8                                                                                             
004a46   e106     BNZ       0x4a54                                                                                          
004a48   5081     MOVF      0x81,0x0,0x0   			|| ATlMenu                                                                    D:\elektro\pic\mp3 preprcavac\ridici2 program\main.c
004a4a   0b04     ANDLW     0x4                                                                                             
004a4c   e103     BNZ       0x4a54                                                                                          
004a4e   5081     MOVF      0x81,0x0,0x0   		){                                                                             D:\elektro\pic\mp3 preprcavac\ridici2 program\main.c
004a50   0b02     ANDLW     0x2                                                                                             
004a52   e001     BZ        0x4a56                                                                                          
004a54   d84d     RCALL     0x4af0         			NastartujOdpocet();                                                           D:\elektro\pic\mp3 preprcavac\ridici2 program\main.c
                                           		}                                                                              D:\elektro\pic\mp3 preprcavac\ridici2 program\main.c
                                                                                                                            D:\elektro\pic\mp3 preprcavac\ridici2 program\main.c
004a56   0100     MOVLB     0x0            		if (CitacRolovani==0){                                                         D:\elektro\pic\mp3 preprcavac\ridici2 program\main.c
004a58   51f4     MOVF      0xf4,0x0,0x1                                                                                    
004a5a   e105     BNZ       0x4a66                                                                                          
004a5c   c0f5     MOVFF     0xf5,0xf4      			CitacRolovani=RychlostRolovani;                                               D:\elektro\pic\mp3 preprcavac\ridici2 program\main.c
004a5e   f0f4                                                                                                               
004a60   8bf0     BSF       0xf0,0x5,0x1   			Flags.Bit.Rolovat=1;                                                          D:\elektro\pic\mp3 preprcavac\ridici2 program\main.c
004a62   7df0     BTG       0xf0,0x6,0x1   			Flags.Bit.ZobrazitCas=!Flags.Bit.ZobrazitCas;                                 D:\elektro\pic\mp3 preprcavac\ridici2 program\main.c
004a64   d001     BRA       0x4a68         		}else{                                                                         D:\elektro\pic\mp3 preprcavac\ridici2 program\main.c
004a66   07f4     DECF      0xf4,0x1,0x1   			CitacRolovani--;                                                              D:\elektro\pic\mp3 preprcavac\ridici2 program\main.c
                                           		}                                                                              D:\elektro\pic\mp3 preprcavac\ridici2 program\main.c
                                                                                                                            D:\elektro\pic\mp3 preprcavac\ridici2 program\main.c
004a68   51ec     MOVF      0xec,0x0,0x1   		if (Odpocet==0){                                                               D:\elektro\pic\mp3 preprcavac\ridici2 program\main.c
004a6a   11ed     IORWF     0xed,0x0,0x1                                                                                    
004a6c   e113     BNZ       0x4a94                                                                                          
004a6e   0e02     MOVLW     0x2            			if (AktualniPodsvetleniTlacitek>2){AktualniPodsvetleniTlacitek--;}            D:\elektro\pic\mp3 preprcavac\ridici2 program\main.c
004a70   80d8     BSF       0xd8,0x0,0x0                                                                                    
004a72   55e8     SUBFWB    0xe8,0x0,0x1                                                                                    
004a74   0e00     MOVLW     0x0                                                                                             
004a76   55e9     SUBFWB    0xe9,0x0,0x1                                                                                    
004a78   e203     BC        0x4a80                                                                                          
004a7a   07e8     DECF      0xe8,0x1,0x1                                                                                    
004a7c   0e00     MOVLW     0x0                                                                                             
004a7e   5be9     SUBWFB    0xe9,0x1,0x1                                                                                    
004a80   0e02     MOVLW     0x2            			if (AktualniPodsvetleniLCD>2){AktualniPodsvetleniLCD--;}                      D:\elektro\pic\mp3 preprcavac\ridici2 program\main.c
004a82   80d8     BSF       0xd8,0x0,0x0                                                                                    
004a84   55e4     SUBFWB    0xe4,0x0,0x1                                                                                    
004a86   0e00     MOVLW     0x0                                                                                             
004a88   55e5     SUBFWB    0xe5,0x0,0x1                                                                                    
004a8a   e20a     BC        0x4aa0                                                                                          
004a8c   07e4     DECF      0xe4,0x1,0x1                                                                                    
004a8e   0e00     MOVLW     0x0                                                                                             
004a90   5be5     SUBWFB    0xe5,0x1,0x1                                                                                    
004a92   d006     BRA       0x4aa0         		}else{                                                                         D:\elektro\pic\mp3 preprcavac\ridici2 program\main.c
004a94   0e05     MOVLW     0x5            			if (ZtlumitPodsvetleni!=5) {                                                  D:\elektro\pic\mp3 preprcavac\ridici2 program\main.c
004a96   5deb     SUBWF     0xeb,0x0,0x1                                                                                    
004a98   e003     BZ        0x4aa0                                                                                          
004a9a   07ec     DECF      0xec,0x1,0x1   				Odpocet--;                                                                   D:\elektro\pic\mp3 preprcavac\ridici2 program\main.c
004a9c   0e00     MOVLW     0x0                                                                                             
004a9e   5bed     SUBWFB    0xed,0x1,0x1                                                                                    
                                           			}                                                                             D:\elektro\pic\mp3 preprcavac\ridici2 program\main.c
                                           		}                                                                              D:\elektro\pic\mp3 preprcavac\ridici2 program\main.c
                                             }                                                                              D:\elektro\pic\mp3 preprcavac\ridici2 program\main.c
004aa0   52e5     MOVF      0xe5,0x1,0x0   }                                                                                D:\elektro\pic\mp3 preprcavac\ridici2 program\main.c
004aa2   ee00     LFSR      0x0,0x19                                                                                        
004aa4   f019                                                                                                               
004aa6   0e06     MOVLW     0x6                                                                                             
004aa8   04e8     DECF      0xe8,0x0,0x0                                                                                    
004aaa   e303     BNC       0x4ab2                                                                                          
004aac   cfe5     MOVFF     0xfe5,0xfed                                                                                     
004aae   ffed                                                                                                               
004ab0   d7fb     BRA       0x4aa8                                                                                          
004ab2   ee00     LFSR      0x0,0x13                                                                                        
004ab4   f013                                                                                                               
004ab6   0e14     MOVLW     0x14                                                                                            
004ab8   04e8     DECF      0xe8,0x0,0x0                                                                                    
004aba   e303     BNC       0x4ac2                                                                                          
004abc   cfe5     MOVFF     0xfe5,0xfed                                                                                     
004abe   ffed                                                                                                               
004ac0   d7fb     BRA       0x4ab8                                                                                          
004ac2   cfe5     MOVFF     0xfe5,0xffb                                                                                     
004ac4   fffb                                                                                                               
004ac6   cfe5     MOVFF     0xfe5,0xffa                                                                                     
004ac8   fffa                                                                                                               
004aca   cfe5     MOVFF     0xfe5,0xff4                                                                                     
004acc   fff4                                                                                                               
004ace   cfe5     MOVFF     0xfe5,0xff3                                                                                     
004ad0   fff3                                                                                                               
004ad2   cfe5     MOVFF     0xfe5,0xff5                                                                                     
004ad4   fff5                                                                                                               
004ad6   cfe5     MOVFF     0xfe5,0xff8                                                                                     
004ad8   fff8                                                                                                               
004ada   cfe5     MOVFF     0xfe5,0xff7                                                                                     
004adc   fff7                                                                                                               
004ade   cfe5     MOVFF     0xfe5,0xff6                                                                                     
004ae0   fff6                                                                                                               
004ae2   cfe5     MOVFF     0xfe5,0xfea                                                                                     
004ae4   ffea                                                                                                               
004ae6   cfe5     MOVFF     0xfe5,0xfe9                                                                                     
004ae8   ffe9                                                                                                               
004aea   cfe5     MOVFF     0xfe5,0xfda                                                                                     
004aec   ffda                                                                                                               
004aee   0011     RETFIE    0x1                                                                                             
                                           ////////////////////////////////////////////////////////////////////////         D:\elektro\pic\mp3 preprcavac\ridici2 program\main.c
                                           ////////////////////////////////////////////////////////////////////////         D:\elektro\pic\mp3 preprcavac\ridici2 program\main.c
                                           void NastartujOdpocet (void){                                                    D:\elektro\pic\mp3 preprcavac\ridici2 program\main.c
                                           //unsigned char ZtlumitPodsvetleni=5;	// po jak dob bez stisku klvesy ztlumit podsvtlen  D:\elektro\pic\mp3 preprcavac\ridici2 program\main.c
                                           // (5s,10s,30s,1M,5M,nikdy)                                                      D:\elektro\pic\mp3 preprcavac\ridici2 program\main.c
                                           // Odpocet                                                                       D:\elektro\pic\mp3 preprcavac\ridici2 program\main.c
                                           		//if (ZtlumitPodsvetleni==0){                                                  D:\elektro\pic\mp3 preprcavac\ridici2 program\main.c
004af0   0100     MOVLB     0x0            			Odpocet=1000;	// 5s                                                           D:\elektro\pic\mp3 preprcavac\ridici2 program\main.c
004af2   0ee8     MOVLW     0xe8                                                                                            
004af4   6fec     MOVWF     0xec,0x1                                                                                        
004af6   0e03     MOVLW     0x3                                                                                             
004af8   6fed     MOVWF     0xed,0x1                                                                                        
                                           		//}                                                                            D:\elektro\pic\mp3 preprcavac\ridici2 program\main.c
004afa   05eb     DECF      0xeb,0x0,0x1   		if (ZtlumitPodsvetleni==1){                                                    D:\elektro\pic\mp3 preprcavac\ridici2 program\main.c
004afc   e104     BNZ       0x4b06                                                                                          
004afe   0ed0     MOVLW     0xd0           			Odpocet=2000;	// 10s                                                          D:\elektro\pic\mp3 preprcavac\ridici2 program\main.c
004b00   6fec     MOVWF     0xec,0x1                                                                                        
004b02   0e07     MOVLW     0x7                                                                                             
004b04   6fed     MOVWF     0xed,0x1                                                                                        
                                           		}                                                                              D:\elektro\pic\mp3 preprcavac\ridici2 program\main.c
004b06   0e02     MOVLW     0x2            		if (ZtlumitPodsvetleni==2){                                                    D:\elektro\pic\mp3 preprcavac\ridici2 program\main.c
004b08   5deb     SUBWF     0xeb,0x0,0x1                                                                                    
004b0a   e104     BNZ       0x4b14                                                                                          
004b0c   0e70     MOVLW     0x70           			Odpocet=6000;	// 30s                                                          D:\elektro\pic\mp3 preprcavac\ridici2 program\main.c
004b0e   6fec     MOVWF     0xec,0x1                                                                                        
004b10   0e17     MOVLW     0x17                                                                                            
004b12   6fed     MOVWF     0xed,0x1                                                                                        
                                           		}                                                                              D:\elektro\pic\mp3 preprcavac\ridici2 program\main.c
004b14   0e03     MOVLW     0x3            		if (ZtlumitPodsvetleni==3){                                                    D:\elektro\pic\mp3 preprcavac\ridici2 program\main.c
004b16   5deb     SUBWF     0xeb,0x0,0x1                                                                                    
004b18   e104     BNZ       0x4b22                                                                                          
004b1a   0ee0     MOVLW     0xe0           			Odpocet=12000;	// 1M                                                          D:\elektro\pic\mp3 preprcavac\ridici2 program\main.c
004b1c   6fec     MOVWF     0xec,0x1                                                                                        
004b1e   0e2e     MOVLW     0x2e                                                                                            
004b20   6fed     MOVWF     0xed,0x1                                                                                        
                                           		}                                                                              D:\elektro\pic\mp3 preprcavac\ridici2 program\main.c
004b22   0e04     MOVLW     0x4            		if (ZtlumitPodsvetleni==4){                                                    D:\elektro\pic\mp3 preprcavac\ridici2 program\main.c
004b24   5deb     SUBWF     0xeb,0x0,0x1                                                                                    
004b26   e104     BNZ       0x4b30                                                                                          
004b28   0e60     MOVLW     0x60           			Odpocet=60000;	// 5M                                                          D:\elektro\pic\mp3 preprcavac\ridici2 program\main.c
004b2a   6fec     MOVWF     0xec,0x1                                                                                        
004b2c   0eea     MOVLW     0xea                                                                                            
004b2e   6fed     MOVWF     0xed,0x1                                                                                        
                                           		}                                                                              D:\elektro\pic\mp3 preprcavac\ridici2 program\main.c
004b30   c0e6     MOVFF     0xe6,0xe8      	AktualniPodsvetleniTlacitek = PodsvetleniTlacitek;                              D:\elektro\pic\mp3 preprcavac\ridici2 program\main.c
004b32   f0e8                                                                                                               
004b34   c0e7     MOVFF     0xe7,0xe9                                                                                       
004b36   f0e9                                                                                                               
004b38   c0e2     MOVFF     0xe2,0xe4      	AktualniPodsvetleniLCD = PodsvetleniLCD;                                        D:\elektro\pic\mp3 preprcavac\ridici2 program\main.c
004b3a   f0e4                                                                                                               
004b3c   c0e3     MOVFF     0xe3,0xe5                                                                                       
004b3e   f0e5                                                                                                               
004b40   0012     RETURN    0x0            }                                                                                D:\elektro\pic\mp3 preprcavac\ridici2 program\main.c
                                           ////////////////////////////////////////////////////////////////////////         D:\elektro\pic\mp3 preprcavac\ridici2 program\main.c
                                           ////////////////////////////////////////////////////////////////////////         D:\elektro\pic\mp3 preprcavac\ridici2 program\main.c
004b42   cfd9     MOVFF     0xfd9,0xfe6    void WrUsart(unsigned char dato){                                                D:\elektro\pic\mp3 preprcavac\ridici2 program\main.c
004b44   ffe6                                                                                                               
004b46   cfe1     MOVFF     0xfe1,0xfd9                                                                                     
004b48   ffd9                                                                                                               
                                           //	Delay10KTCYx(25);				// abychom moc nechvatali...                             D:\elektro\pic\mp3 preprcavac\ridici2 program\main.c
004b4a   a2ac     BTFSS     0xac,0x1,0x0   	while(!TXSTAbits.TRMT);                                                         D:\elektro\pic\mp3 preprcavac\ridici2 program\main.c
004b4c   d7fe     BRA       0x4b4a                                                                                          
004b4e   0efe     MOVLW     0xfe           	TXREG = dato;                                                                   D:\elektro\pic\mp3 preprcavac\ridici2 program\main.c
004b50   50db     MOVF      0xdb,0x0,0x0                                                                                    
004b52   6ead     MOVWF     0xad,0x0                                                                                        
                                           //	RdUsart();                                                                    D:\elektro\pic\mp3 preprcavac\ridici2 program\main.c
004b54   52e5     MOVF      0xe5,0x1,0x0   }                                                                                D:\elektro\pic\mp3 preprcavac\ridici2 program\main.c
004b56   cfe7     MOVFF     0xfe7,0xfd9                                                                                     
004b58   ffd9                                                                                                               
004b5a   0012     RETURN    0x0                                                                                             
                                           ////////////////////////////////////////////////////////////////////////         D:\elektro\pic\mp3 preprcavac\ridici2 program\main.c
                                           ////////////////////////////////////////////////////////////////////////         D:\elektro\pic\mp3 preprcavac\ridici2 program\main.c
                                           unsigned char RdUsart(void){                                                     D:\elektro\pic\mp3 preprcavac\ridici2 program\main.c
004b5c   aa9e     BTFSS     0x9e,0x5,0x0   	while( !DataRdyUSART() );                                                       D:\elektro\pic\mp3 preprcavac\ridici2 program\main.c
004b5e   d7fe     BRA       0x4b5c                                                                                          
004b60   50ae     MOVF      0xae,0x0,0x0   	return RCREG;                                                                   D:\elektro\pic\mp3 preprcavac\ridici2 program\main.c
004b62   0012     RETURN    0x0            }                                                                                D:\elektro\pic\mp3 preprcavac\ridici2 program\main.c
                                           ////////////////////////////////////////////////////////////////////////         D:\elektro\pic\mp3 preprcavac\ridici2 program\main.c
                                           ////////////////////////////////////////////////////////////////////////         D:\elektro\pic\mp3 preprcavac\ridici2 program\main.c
                                           void NastavStavPrehravani(void){                                                 D:\elektro\pic\mp3 preprcavac\ridici2 program\main.c
004b64   0e84     MOVLW     0x84           	WrUsart(0x84);                                                                  D:\elektro\pic\mp3 preprcavac\ridici2 program\main.c
004b66   6ee6     MOVWF     0xe6,0x0                                                                                        
004b68   dfec     RCALL     0x4b42                                                                                          
004b6a   52e5     MOVF      0xe5,0x1,0x0                                                                                    
004b6c   c0f2     MOVFF     0xf2,0xfe6     	WrUsart(PREHSTAV0.Byte);                                                        D:\elektro\pic\mp3 preprcavac\ridici2 program\main.c
004b6e   ffe6                                                                                                               
004b70   dfe8     RCALL     0x4b42                                                                                          
004b72   52e5     MOVF      0xe5,0x1,0x0                                                                                    
004b74   c0f3     MOVFF     0xf3,0xfe6     	WrUsart(PREHSTAV1.Byte);                                                        D:\elektro\pic\mp3 preprcavac\ridici2 program\main.c
004b76   ffe6                                                                                                               
004b78   dfe4     RCALL     0x4b42                                                                                          
004b7a   52e5     MOVF      0xe5,0x1,0x0                                                                                    
004b7c   efae     GOTO      0x4b5c         	RdUsart();                                                                      D:\elektro\pic\mp3 preprcavac\ridici2 program\main.c
004b7e   f025                                                                                                               
                                           }                                                                                D:\elektro\pic\mp3 preprcavac\ridici2 program\main.c
                                           ////////////////////////////////////////////////////////////////////////         D:\elektro\pic\mp3 preprcavac\ridici2 program\main.c
                                           ////////////////////////////////////////////////////////////////////////         D:\elektro\pic\mp3 preprcavac\ridici2 program\main.c
                                           void CtiStavPrehravani(void){                                                    D:\elektro\pic\mp3 preprcavac\ridici2 program\main.c
004b80   0e81     MOVLW     0x81           	WrUsart(0x81);                                                                  D:\elektro\pic\mp3 preprcavac\ridici2 program\main.c
004b82   6ee6     MOVWF     0xe6,0x0                                                                                        
004b84   dfde     RCALL     0x4b42                                                                                          
004b86   52e5     MOVF      0xe5,0x1,0x0                                                                                    
004b88   dfe9     RCALL     0x4b5c         	PREHSTAV0.Byte=RdUsart();                                                       D:\elektro\pic\mp3 preprcavac\ridici2 program\main.c
004b8a   0100     MOVLB     0x0                                                                                             
004b8c   6ff2     MOVWF     0xf2,0x1                                                                                        
004b8e   dfe6     RCALL     0x4b5c         	PREHSTAV1.Byte=RdUsart();                                                       D:\elektro\pic\mp3 preprcavac\ridici2 program\main.c
004b90   0100     MOVLB     0x0                                                                                             
004b92   6ff3     MOVWF     0xf3,0x1                                                                                        
004b94   dfe3     RCALL     0x4b5c         	Cas.Low=RdUsart();                                                              D:\elektro\pic\mp3 preprcavac\ridici2 program\main.c
004b96   0100     MOVLB     0x0                                                                                             
004b98   6f82     MOVWF     0x82,0x1                                                                                        
004b9a   dfe0     RCALL     0x4b5c         	Cas.High=RdUsart();                                                             D:\elektro\pic\mp3 preprcavac\ridici2 program\main.c
004b9c   0100     MOVLB     0x0                                                                                             
004b9e   6f83     MOVWF     0x83,0x1                                                                                        
                                           	                                                                                D:\elektro\pic\mp3 preprcavac\ridici2 program\main.c
004ba0   0100     MOVLB     0x0            	if (PREHSTAV0.Bit.NeprehravatDal){                                              D:\elektro\pic\mp3 preprcavac\ridici2 program\main.c
004ba2   a7f2     BTFSS     0xf2,0x3,0x1                                                                                    
004ba4   d002     BRA       0x4baa                                                                                          
004ba6   0e03     MOVLW     0x3            		RezimPrehravani=3;                                                             D:\elektro\pic\mp3 preprcavac\ridici2 program\main.c
004ba8   d00d     BRA       0x4bc4         	}else{                                                                          D:\elektro\pic\mp3 preprcavac\ridici2 program\main.c
004baa   a9f2     BTFSS     0xf2,0x4,0x1   		if (PREHSTAV0.Bit.Repeat){                                                     D:\elektro\pic\mp3 preprcavac\ridici2 program\main.c
004bac   d006     BRA       0x4bba                                                                                          
004bae   abf2     BTFSS     0xf2,0x5,0x1   			if (PREHSTAV0.Bit.RepeatSouboru){RezimPrehravani=4;}                          D:\elektro\pic\mp3 preprcavac\ridici2 program\main.c
004bb0   d002     BRA       0x4bb6                                                                                          
004bb2   0e04     MOVLW     0x4                                                                                             
004bb4   d007     BRA       0x4bc4         			else{RezimPrehravani=2;}                                                      D:\elektro\pic\mp3 preprcavac\ridici2 program\main.c
004bb6   0e02     MOVLW     0x2                                                                                             
004bb8   d005     BRA       0x4bc4         		}else{                                                                         D:\elektro\pic\mp3 preprcavac\ridici2 program\main.c
004bba   adf2     BTFSS     0xf2,0x6,0x1   			if (PREHSTAV0.Bit.ProhledavatAdresare){RezimPrehravani=0;}                    D:\elektro\pic\mp3 preprcavac\ridici2 program\main.c
004bbc   d002     BRA       0x4bc2                                                                                          
004bbe   6be1     CLRF      0xe1,0x1                                                                                        
004bc0   0012     RETURN    0x0            			else{RezimPrehravani=1;}                                                      D:\elektro\pic\mp3 preprcavac\ridici2 program\main.c
004bc2   0e01     MOVLW     0x1                                                                                             
004bc4   6fe1     MOVWF     0xe1,0x1                                                                                        
                                           		}		                                                                            D:\elektro\pic\mp3 preprcavac\ridici2 program\main.c
                                           	}                                                                               D:\elektro\pic\mp3 preprcavac\ridici2 program\main.c
004bc6   0012     RETURN    0x0            }                                                                                D:\elektro\pic\mp3 preprcavac\ridici2 program\main.c
                                           ////////////////////////////////////////////////////////////////////////         D:\elektro\pic\mp3 preprcavac\ridici2 program\main.c
                                           ////////////////////////////////////////////////////////////////////////         D:\elektro\pic\mp3 preprcavac\ridici2 program\main.c
                                                                                                                            D:\elektro\pic\mp3 preprcavac\ridici2 program\main.c
004bc8   cfd9     MOVFF     0xfd9,0xfe6    void Init(void){                                                                 D:\elektro\pic\mp3 preprcavac\ridici2 program\main.c
004bca   ffe6                                                                                                               
004bcc   cfe1     MOVFF     0xfe1,0xfd9                                                                                     
004bce   ffd9                                                                                                               
004bd0   0e02     MOVLW     0x2                                                                                             
004bd2   26e1     ADDWF     0xe1,0x1,0x0                                                                                    
                                           	unsigned int pomocna;                                                           D:\elektro\pic\mp3 preprcavac\ridici2 program\main.c
                                           	// konfigurace portu C                                                          D:\elektro\pic\mp3 preprcavac\ridici2 program\main.c
004bd4   0ef9     MOVLW     0xf9           	TRISC = 0xF9 ; // b'1111 1001';                                                 D:\elektro\pic\mp3 preprcavac\ridici2 program\main.c
004bd6   6e94     MOVWF     0x94,0x0                                                                                        
                                           	// TRISC = 0xB9 ; // b'1011 1001';                                              D:\elektro\pic\mp3 preprcavac\ridici2 program\main.c
                                                                                                                            D:\elektro\pic\mp3 preprcavac\ridici2 program\main.c
                                           	// konfigurace portu A                                                          D:\elektro\pic\mp3 preprcavac\ridici2 program\main.c
004bd8   6a80     CLRF      0x80,0x0       	PORTA=0x00;                                                                     D:\elektro\pic\mp3 preprcavac\ridici2 program\main.c
004bda   6a89     CLRF      0x89,0x0       	LATA=0x00;                                                                      D:\elektro\pic\mp3 preprcavac\ridici2 program\main.c
004bdc   0e0f     MOVLW     0xf            	ADCON1=0x0F;		// jako digitln (A/D)                                         D:\elektro\pic\mp3 preprcavac\ridici2 program\main.c
004bde   6ec1     MOVWF     0xc1,0x0                                                                                        
004be0   0e07     MOVLW     0x7            	CMCON=0x07;			// jako digitln (kompartory)                                D:\elektro\pic\mp3 preprcavac\ridici2 program\main.c
004be2   6eb4     MOVWF     0xb4,0x0                                                                                        
004be4   6ab5     CLRF      0xb5,0x0       	CVRCON=0x00;                                                                    D:\elektro\pic\mp3 preprcavac\ridici2 program\main.c
004be6   6a92     CLRF      0x92,0x0       	TRISA=0x00;			// nastavit vechno jako vstupy                                D:\elektro\pic\mp3 preprcavac\ridici2 program\main.c
                                                                                                                            D:\elektro\pic\mp3 preprcavac\ridici2 program\main.c
                                           	// konfigurace portu D                                                          D:\elektro\pic\mp3 preprcavac\ridici2 program\main.c
004be8   6a83     CLRF      0x83,0x0       	PORTD=0;                                                                        D:\elektro\pic\mp3 preprcavac\ridici2 program\main.c
004bea   6a8c     CLRF      0x8c,0x0       	LATD=0;                                                                         D:\elektro\pic\mp3 preprcavac\ridici2 program\main.c
004bec   6a95     CLRF      0x95,0x0       	TRISD=0;	                                                                       D:\elektro\pic\mp3 preprcavac\ridici2 program\main.c
                                                                                                                            D:\elektro\pic\mp3 preprcavac\ridici2 program\main.c
                                           	// nactani nastaveni z pameti EEPROM	                                           D:\elektro\pic\mp3 preprcavac\ridici2 program\main.c
004bee   6ae6     CLRF      0xe6,0x0       	Ekvalizer = EEPROMRead(0x00);                                                   D:\elektro\pic\mp3 preprcavac\ridici2 program\main.c
004bf0   d8d0     RCALL     0x4d92                                                                                          
004bf2   52e5     MOVF      0xe5,0x1,0x0                                                                                    
004bf4   0100     MOVLB     0x0                                                                                             
004bf6   6fe0     MOVWF     0xe0,0x1                                                                                        
004bf8   50e8     MOVF      0xe8,0x0,0x0   	if (Ekvalizer > 12){Ekvalizer=0;}                                               D:\elektro\pic\mp3 preprcavac\ridici2 program\main.c
004bfa   080c     SUBLW     0xc                                                                                             
004bfc   e201     BC        0x4c00                                                                                          
004bfe   6be0     CLRF      0xe0,0x1                                                                                        
004c00   0e01     MOVLW     0x1            	VypinatDisk = EEPROMRead(0x01);                                                 D:\elektro\pic\mp3 preprcavac\ridici2 program\main.c
004c02   6ee6     MOVWF     0xe6,0x0                                                                                        
004c04   d8c6     RCALL     0x4d92                                                                                          
004c06   52e5     MOVF      0xe5,0x1,0x0                                                                                    
004c08   0100     MOVLB     0x0                                                                                             
004c0a   6fea     MOVWF     0xea,0x1                                                                                        
004c0c   50e8     MOVF      0xe8,0x0,0x0   	if (VypinatDisk > 5){VypinatDisk=1;}                                            D:\elektro\pic\mp3 preprcavac\ridici2 program\main.c
004c0e   0805     SUBLW     0x5                                                                                             
004c10   e202     BC        0x4c16                                                                                          
004c12   0e01     MOVLW     0x1                                                                                             
004c14   6fea     MOVWF     0xea,0x1                                                                                        
004c16   0e02     MOVLW     0x2            	ZtlumitPodsvetleni = EEPROMRead(0x02);                                          D:\elektro\pic\mp3 preprcavac\ridici2 program\main.c
004c18   6ee6     MOVWF     0xe6,0x0                                                                                        
004c1a   d8bb     RCALL     0x4d92                                                                                          
004c1c   52e5     MOVF      0xe5,0x1,0x0                                                                                    
004c1e   0100     MOVLB     0x0                                                                                             
004c20   6feb     MOVWF     0xeb,0x1                                                                                        
004c22   50e8     MOVF      0xe8,0x0,0x0   	if (ZtlumitPodsvetleni > 5){ZtlumitPodsvetleni=5;}                              D:\elektro\pic\mp3 preprcavac\ridici2 program\main.c
004c24   0805     SUBLW     0x5                                                                                             
004c26   e202     BC        0x4c2c                                                                                          
004c28   0e05     MOVLW     0x5                                                                                             
004c2a   6feb     MOVWF     0xeb,0x1                                                                                        
                                           	                                                                                D:\elektro\pic\mp3 preprcavac\ridici2 program\main.c
004c2c   0e04     MOVLW     0x4            	pomocna=EEPROMRead(0x04);                                                       D:\elektro\pic\mp3 preprcavac\ridici2 program\main.c
004c2e   6ee6     MOVWF     0xe6,0x0                                                                                        
004c30   d8b0     RCALL     0x4d92                                                                                          
004c32   52e5     MOVF      0xe5,0x1,0x0                                                                                    
004c34   6ede     MOVWF     0xde,0x0                                                                                        
004c36   6add     CLRF      0xdd,0x0                                                                                        
004c38   cfde     MOVFF     0xfde,0x14     	PodsvetleniLCD=(pomocna << 8) | EEPROMRead(0x03);                               D:\elektro\pic\mp3 preprcavac\ridici2 program\main.c
004c3a   f014                                                                                                               
004c3c   cfdd     MOVFF     0xfdd,0x15                                                                                      
004c3e   f015                                                                                                               
004c40   c014     MOVFF     0x14,0x15                                                                                       
004c42   f015                                                                                                               
004c44   6a14     CLRF      0x14,0x0                                                                                        
004c46   c014     MOVFF     0x14,0xfe6                                                                                      
004c48   ffe6                                                                                                               
004c4a   c015     MOVFF     0x15,0xfe6                                                                                      
004c4c   ffe6                                                                                                               
004c4e   0e03     MOVLW     0x3                                                                                             
004c50   6ee6     MOVWF     0xe6,0x0                                                                                        
004c52   d89f     RCALL     0x4d92                                                                                          
004c54   52e5     MOVF      0xe5,0x1,0x0                                                                                    
004c56   52e5     MOVF      0xe5,0x1,0x0                                                                                    
004c58   cfe7     MOVFF     0xfe7,0x15                                                                                      
004c5a   f015                                                                                                               
004c5c   52e5     MOVF      0xe5,0x1,0x0                                                                                    
004c5e   cfe7     MOVFF     0xfe7,0x14                                                                                      
004c60   f014                                                                                                               
004c62   0100     MOVLB     0x0                                                                                             
004c64   1014     IORWF     0x14,0x0,0x0                                                                                    
004c66   6fe2     MOVWF     0xe2,0x1                                                                                        
004c68   c015     MOVFF     0x15,0xe3                                                                                       
004c6a   f0e3                                                                                                               
004c6c   0eff     MOVLW     0xff           	if (PodsvetleniLCD > 1023){PodsvetleniLCD=64;}                                  D:\elektro\pic\mp3 preprcavac\ridici2 program\main.c
004c6e   80d8     BSF       0xd8,0x0,0x0                                                                                    
004c70   55e2     SUBFWB    0xe2,0x0,0x1                                                                                    
004c72   0e03     MOVLW     0x3                                                                                             
004c74   5415     SUBFWB    0x15,0x0,0x0                                                                                    
004c76   e203     BC        0x4c7e                                                                                          
004c78   0e40     MOVLW     0x40                                                                                            
004c7a   6fe2     MOVWF     0xe2,0x1                                                                                        
004c7c   6be3     CLRF      0xe3,0x1                                                                                        
                                           	                                                                                D:\elektro\pic\mp3 preprcavac\ridici2 program\main.c
004c7e   0e06     MOVLW     0x6            	pomocna=EEPROMRead(0x06);                                                       D:\elektro\pic\mp3 preprcavac\ridici2 program\main.c
004c80   6ee6     MOVWF     0xe6,0x0                                                                                        
004c82   d887     RCALL     0x4d92                                                                                          
004c84   52e5     MOVF      0xe5,0x1,0x0                                                                                    
004c86   6ede     MOVWF     0xde,0x0                                                                                        
004c88   6add     CLRF      0xdd,0x0                                                                                        
004c8a   cfde     MOVFF     0xfde,0x14     	PodsvetleniTlacitek=(pomocna << 8) | EEPROMRead(0x05);                          D:\elektro\pic\mp3 preprcavac\ridici2 program\main.c
004c8c   f014                                                                                                               
004c8e   cfdd     MOVFF     0xfdd,0x15                                                                                      
004c90   f015                                                                                                               
004c92   c014     MOVFF     0x14,0x15                                                                                       
004c94   f015                                                                                                               
004c96   6a14     CLRF      0x14,0x0                                                                                        
004c98   c014     MOVFF     0x14,0xfe6                                                                                      
004c9a   ffe6                                                                                                               
004c9c   c015     MOVFF     0x15,0xfe6                                                                                      
004c9e   ffe6                                                                                                               
004ca0   0e05     MOVLW     0x5                                                                                             
004ca2   6ee6     MOVWF     0xe6,0x0                                                                                        
004ca4   d876     RCALL     0x4d92                                                                                          
004ca6   52e5     MOVF      0xe5,0x1,0x0                                                                                    
004ca8   52e5     MOVF      0xe5,0x1,0x0                                                                                    
004caa   cfe7     MOVFF     0xfe7,0x15                                                                                      
004cac   f015                                                                                                               
004cae   52e5     MOVF      0xe5,0x1,0x0                                                                                    
004cb0   cfe7     MOVFF     0xfe7,0x14                                                                                      
004cb2   f014                                                                                                               
004cb4   0100     MOVLB     0x0                                                                                             
004cb6   1014     IORWF     0x14,0x0,0x0                                                                                    
004cb8   6fe6     MOVWF     0xe6,0x1                                                                                        
004cba   c015     MOVFF     0x15,0xe7                                                                                       
004cbc   f0e7                                                                                                               
004cbe   0eff     MOVLW     0xff           	if (PodsvetleniTlacitek>1023){PodsvetleniTlacitek=512;}                         D:\elektro\pic\mp3 preprcavac\ridici2 program\main.c
004cc0   80d8     BSF       0xd8,0x0,0x0                                                                                    
004cc2   55e6     SUBFWB    0xe6,0x0,0x1                                                                                    
004cc4   0e03     MOVLW     0x3                                                                                             
004cc6   5415     SUBFWB    0x15,0x0,0x0                                                                                    
004cc8   e203     BC        0x4cd0                                                                                          
004cca   6be6     CLRF      0xe6,0x1                                                                                        
004ccc   0e02     MOVLW     0x2                                                                                             
004cce   6fe7     MOVWF     0xe7,0x1                                                                                        
                                                                                                                            D:\elektro\pic\mp3 preprcavac\ridici2 program\main.c
                                           	// konfigurace PWMky puzivane k regulaci podsvetleni                            D:\elektro\pic\mp3 preprcavac\ridici2 program\main.c
004cd0   0e0a     MOVLW     0xa            	OpenPWM2(10);				// Setup Timer2, CCP1 to provide                               D:\elektro\pic\mp3 preprcavac\ridici2 program\main.c
004cd2   6ee6     MOVWF     0xe6,0x0                                                                                        
004cd4   ecc4     CALL      0x6d88,0x0                                                                                      
004cd6   f036                                                                                                               
004cd8   52e5     MOVF      0xe5,0x1,0x0                                                                                    
004cda   0e0a     MOVLW     0xa            	OpenPWM1(10);				// Setup Timer2, CCP1 to provide                               D:\elektro\pic\mp3 preprcavac\ridici2 program\main.c
004cdc   6ee6     MOVWF     0xe6,0x0                                                                                        
004cde   ec95     CALL      0x6d2a,0x0                                                                                      
004ce0   f036                                                                                                               
004ce2   52e5     MOVF      0xe5,0x1,0x0                                                                                    
                                           	// 15 - 20,8kHz                                                                 D:\elektro\pic\mp3 preprcavac\ridici2 program\main.c
                                           	// 11 - 28,4kHz                                                                 D:\elektro\pic\mp3 preprcavac\ridici2 program\main.c
                                           	// 10 - 31kHz                                                                   D:\elektro\pic\mp3 preprcavac\ridici2 program\main.c
                                           	// 9  - 34,7kHz                                                                 D:\elektro\pic\mp3 preprcavac\ridici2 program\main.c
                                           	// frekvence PWM je neco okolo 31KHz, protoze kdyz byla mensi (1.5KHz)          D:\elektro\pic\mp3 preprcavac\ridici2 program\main.c
                                           	// tak byla pri mensich hlasitostech slysitelna ve sluchatkach...               D:\elektro\pic\mp3 preprcavac\ridici2 program\main.c
004ce4   0efe     MOVLW     0xfe           	OpenTimer2(T2_PS_1_16 & T2_POST_1_16 & TIMER_INT_ON);                           D:\elektro\pic\mp3 preprcavac\ridici2 program\main.c
004ce6   6ee6     MOVWF     0xe6,0x0                                                                                        
004ce8   ec7a     CALL      0x6cf4,0x0                                                                                      
004cea   f036                                                                                                               
004cec   52e5     MOVF      0xe5,0x1,0x0                                                                                    
                                                                                                                            D:\elektro\pic\mp3 preprcavac\ridici2 program\main.c
004cee   c0e6     MOVFF     0xe6,0xe8      	AktualniPodsvetleniTlacitek = PodsvetleniTlacitek;                              D:\elektro\pic\mp3 preprcavac\ridici2 program\main.c
004cf0   f0e8                                                                                                               
004cf2   c0e7     MOVFF     0xe7,0xe9                                                                                       
004cf4   f0e9                                                                                                               
004cf6   c0e2     MOVFF     0xe2,0xe4      	AktualniPodsvetleniLCD = PodsvetleniLCD;                                        D:\elektro\pic\mp3 preprcavac\ridici2 program\main.c
004cf8   f0e4                                                                                                               
004cfa   c0e3     MOVFF     0xe3,0xe5                                                                                       
004cfc   f0e5                                                                                                               
004cfe   c0e2     MOVFF     0xe2,0xfe6     	SetDCPWM2(AktualniPodsvetleniLCD);                                              D:\elektro\pic\mp3 preprcavac\ridici2 program\main.c
004d00   ffe6                                                                                                               
004d02   c0e3     MOVFF     0xe3,0xfe6                                                                                      
004d04   ffe6                                                                                                               
004d06   ece2     CALL      0x6bc4,0x0                                                                                      
004d08   f035                                                                                                               
004d0a   52e5     MOVF      0xe5,0x1,0x0                                                                                    
004d0c   52e5     MOVF      0xe5,0x1,0x0                                                                                    
004d0e   c0e8     MOVFF     0xe8,0xfe6     	SetDCPWM1(AktualniPodsvetleniTlacitek);                                         D:\elektro\pic\mp3 preprcavac\ridici2 program\main.c
004d10   ffe6                                                                                                               
004d12   c0e9     MOVFF     0xe9,0xfe6                                                                                      
004d14   ffe6                                                                                                               
004d16   ec11     CALL      0x6c22,0x0                                                                                      
004d18   f036                                                                                                               
004d1a   52e5     MOVF      0xe5,0x1,0x0                                                                                    
004d1c   52e5     MOVF      0xe5,0x1,0x0                                                                                    
                                                                                                                            D:\elektro\pic\mp3 preprcavac\ridici2 program\main.c
                                           	// konfigurace usartu                                                           D:\elektro\pic\mp3 preprcavac\ridici2 program\main.c
                                            	OpenUSART (USART_TX_INT_OFF &                                                  D:\elektro\pic\mp3 preprcavac\ridici2 program\main.c
                                                        USART_RX_INT_OFF &                                                  D:\elektro\pic\mp3 preprcavac\ridici2 program\main.c
                                                        USART_ASYNCH_MODE &                                                 D:\elektro\pic\mp3 preprcavac\ridici2 program\main.c
                                                        USART_EIGHT_BIT &                                                   D:\elektro\pic\mp3 preprcavac\ridici2 program\main.c
                                                        USART_CONT_RX &                                                     D:\elektro\pic\mp3 preprcavac\ridici2 program\main.c
004d1e   0e40     MOVLW     0x40                        USART_BRGH_HIGH, 64);                                               D:\elektro\pic\mp3 preprcavac\ridici2 program\main.c
004d20   6ee6     MOVWF     0xe6,0x0                                                                                        
004d22   6ae6     CLRF      0xe6,0x0                                                                                        
004d24   0e3c     MOVLW     0x3c                                                                                            
004d26   6ee6     MOVWF     0xe6,0x0                                                                                        
004d28   eca8     CALL      0x6b50,0x0                                                                                      
004d2a   f035                                                                                                               
004d2c   52e5     MOVF      0xe5,0x1,0x0                                                                                    
004d2e   52e5     MOVF      0xe5,0x1,0x0                                                                                    
004d30   52e5     MOVF      0xe5,0x1,0x0                                                                                    
                                                                                                                            D:\elektro\pic\mp3 preprcavac\ridici2 program\main.c
                                           	//konfigurace timeru0                                                           D:\elektro\pic\mp3 preprcavac\ridici2 program\main.c
004d32   0e9f     MOVLW     0x9f           	OpenTimer0(TIMER_INT_ON & T0_16BIT & T0_SOURCE_INT & T0_PS_1_1);                D:\elektro\pic\mp3 preprcavac\ridici2 program\main.c
004d34   6ee6     MOVWF     0xe6,0x0                                                                                        
004d36   ec5e     CALL      0x6cbc,0x0                                                                                      
004d38   f036                                                                                                               
004d3a   52e5     MOVF      0xe5,0x1,0x0                                                                                    
004d3c   8ef2     BSF       0xf2,0x7,0x0   	INTCONbits.GIE=1;                                                               D:\elektro\pic\mp3 preprcavac\ridici2 program\main.c
                                                                                                                            D:\elektro\pic\mp3 preprcavac\ridici2 program\main.c
                                           	//nulovani priznaku tlacitek                                                    D:\elektro\pic\mp3 preprcavac\ridici2 program\main.c
004d3e   0100     MOVLB     0x0            	Flags.Byte=0x0000;                                                              D:\elektro\pic\mp3 preprcavac\ridici2 program\main.c
004d40   6bef     CLRF      0xef,0x1                                                                                        
004d42   6bf0     CLRF      0xf0,0x1                                                                                        
004d44   0100     MOVLB     0x0            	TLPred.Byte=0x0000;                                                             D:\elektro\pic\mp3 preprcavac\ridici2 program\main.c
004d46   6bce     CLRF      0xce,0x1                                                                                        
004d48   6bcf     CLRF      0xcf,0x1                                                                                        
004d4a   0e02     MOVLW     0x2            }                                                                                D:\elektro\pic\mp3 preprcavac\ridici2 program\main.c
004d4c   5ce1     SUBWF     0xe1,0x0,0x0                                                                                    
004d4e   e202     BC        0x4d54                                                                                          
004d50   6ae1     CLRF      0xe1,0x0                                                                                        
004d52   52e5     MOVF      0xe5,0x1,0x0                                                                                    
004d54   6ee1     MOVWF     0xe1,0x0                                                                                        
004d56   52e5     MOVF      0xe5,0x1,0x0                                                                                    
004d58   cfe7     MOVFF     0xfe7,0xfd9                                                                                     
004d5a   ffd9                                                                                                               
004d5c   0012     RETURN    0x0                                                                                             
                                           ////////////////////////////////////////////////////////////////////////         D:\elektro\pic\mp3 preprcavac\ridici2 program\main.c
                                           ////////////////////////////////////////////////////////////////////////         D:\elektro\pic\mp3 preprcavac\ridici2 program\main.c
                                           void str2ram(static char *dest, const static char rom *src){                     D:\elektro\pic\mp3 preprcavac\ridici2 program\main.c
004d5e   0102     MOVLB     0x2            	while ((*dest++ = *src++) != '\0');                                             D:\elektro\pic\mp3 preprcavac\ridici2 program\main.c
004d60   c2b6     MOVFF     0x2b6,0xff6                                                                                     
004d62   fff6                                                                                                               
004d64   2bb6     INCF      0xb6,0x1,0x1                                                                                    
004d66   c2b7     MOVFF     0x2b7,0xff7                                                                                     
004d68   fff7                                                                                                               
004d6a   0e00     MOVLW     0x0                                                                                             
004d6c   23b7     ADDWFC    0xb7,0x1,0x1                                                                                    
004d6e   c2b8     MOVFF     0x2b8,0xff8                                                                                     
004d70   fff8                                                                                                               
004d72   23b8     ADDWFC    0xb8,0x1,0x1                                                                                    
004d74   0008     TBLRD                                                                                                     
004d76   50f5     MOVF      0xf5,0x0,0x0                                                                                    
004d78   6ee6     MOVWF     0xe6,0x0                                                                                        
004d7a   c2b4     MOVFF     0x2b4,0xfe9                                                                                     
004d7c   ffe9                                                                                                               
004d7e   c2b5     MOVFF     0x2b5,0xfea                                                                                     
004d80   ffea                                                                                                               
004d82   2bb4     INCF      0xb4,0x1,0x1                                                                                    
004d84   0e00     MOVLW     0x0                                                                                             
004d86   23b5     ADDWFC    0xb5,0x1,0x1                                                                                    
004d88   52e5     MOVF      0xe5,0x1,0x0                                                                                    
004d8a   50e7     MOVF      0xe7,0x0,0x0                                                                                    
004d8c   6eef     MOVWF     0xef,0x0                                                                                        
004d8e   e1e7     BNZ       0x4d5e                                                                                          
004d90   0012     RETURN    0x0            }                                                                                D:\elektro\pic\mp3 preprcavac\ridici2 program\main.c
                                           ////////////////////////////////////////////////////////////////////////         D:\elektro\pic\mp3 preprcavac\ridici2 program\main.c
                                           ////////////////////////////////////////////////////////////////////////         D:\elektro\pic\mp3 preprcavac\ridici2 program\main.c
004d92   cfd9     MOVFF     0xfd9,0xfe6    unsigned char EEPROMRead(unsigned char Adresa){                                  D:\elektro\pic\mp3 preprcavac\ridici2 program\main.c
004d94   ffe6                                                                                                               
004d96   cfe1     MOVFF     0xfe1,0xfd9                                                                                     
004d98   ffd9                                                                                                               
                                             /*                                                                             D:\elektro\pic\mp3 preprcavac\ridici2 program\main.c
                                              * The first thing to do is to read                                            D:\elektro\pic\mp3 preprcavac\ridici2 program\main.c
                                              * the start direction from data EEPROM.                                       D:\elektro\pic\mp3 preprcavac\ridici2 program\main.c
                                              */                                                                            D:\elektro\pic\mp3 preprcavac\ridici2 program\main.c
004d9a   6aaa     CLRF      0xaa,0x0         EEADRH=0;                                                                      D:\elektro\pic\mp3 preprcavac\ridici2 program\main.c
004d9c   0efe     MOVLW     0xfe             EEADR = Adresa;                                                                D:\elektro\pic\mp3 preprcavac\ridici2 program\main.c
004d9e   50db     MOVF      0xdb,0x0,0x0                                                                                    
004da0   6ea9     MOVWF     0xa9,0x0                                                                                        
004da2   9ea6     BCF       0xa6,0x7,0x0     EECON1bits.EEPGD = 0;                                                          D:\elektro\pic\mp3 preprcavac\ridici2 program\main.c
004da4   9ca6     BCF       0xa6,0x6,0x0     EECON1bits.CFGS = 0;                                                           D:\elektro\pic\mp3 preprcavac\ridici2 program\main.c
004da6   80a6     BSF       0xa6,0x0,0x0     EECON1bits.RD = 1;                                                             D:\elektro\pic\mp3 preprcavac\ridici2 program\main.c
004da8   50a8     MOVF      0xa8,0x0,0x0     return EEDATA;                                                                 D:\elektro\pic\mp3 preprcavac\ridici2 program\main.c
004daa   52e5     MOVF      0xe5,0x1,0x0   }                                                                                D:\elektro\pic\mp3 preprcavac\ridici2 program\main.c
004dac   cfe7     MOVFF     0xfe7,0xfd9                                                                                     
004dae   ffd9                                                                                                               
004db0   0012     RETURN    0x0                                                                                             
                                           ////////////////////////////////////////////////////////////////////////         D:\elektro\pic\mp3 preprcavac\ridici2 program\main.c
                                           ////////////////////////////////////////////////////////////////////////         D:\elektro\pic\mp3 preprcavac\ridici2 program\main.c
004db2   cfd9     MOVFF     0xfd9,0xfe6    void EEPROMWrite(unsigned char Adresa,unsigned char Dato){                       D:\elektro\pic\mp3 preprcavac\ridici2 program\main.c
004db4   ffe6                                                                                                               
004db6   cfe1     MOVFF     0xfe1,0xfd9                                                                                     
004db8   ffd9                                                                                                               
004dba   6aaa     CLRF      0xaa,0x0         EEADRH=0;                                                                      D:\elektro\pic\mp3 preprcavac\ridici2 program\main.c
004dbc   0efe     MOVLW     0xfe             EEADR = Adresa;                                                                D:\elektro\pic\mp3 preprcavac\ridici2 program\main.c
004dbe   50db     MOVF      0xdb,0x0,0x0                                                                                    
004dc0   6ea9     MOVWF     0xa9,0x0                                                                                        
004dc2   0efd     MOVLW     0xfd             EEDATA = Dato;                                                                 D:\elektro\pic\mp3 preprcavac\ridici2 program\main.c
004dc4   50db     MOVF      0xdb,0x0,0x0                                                                                    
004dc6   6ea8     MOVWF     0xa8,0x0                                                                                        
004dc8   9ea6     BCF       0xa6,0x7,0x0     EECON1bits.EEPGD = 0;	// Point to DATA memory                                  D:\elektro\pic\mp3 preprcavac\ridici2 program\main.c
004dca   9ca6     BCF       0xa6,0x6,0x0     EECON1bits.CFGS = 0;	// Access EEPROM                                          D:\elektro\pic\mp3 preprcavac\ridici2 program\main.c
004dcc   84a6     BSF       0xa6,0x2,0x0     EECON1bits.WREN = 1;	// Enable writes                                          D:\elektro\pic\mp3 preprcavac\ridici2 program\main.c
004dce   9ef2     BCF       0xf2,0x7,0x0     INTCONbits.GIE = 0;		// Disable Interrupts                                     D:\elektro\pic\mp3 preprcavac\ridici2 program\main.c
                                                                                                                            D:\elektro\pic\mp3 preprcavac\ridici2 program\main.c
                                             _asm                                                                           D:\elektro\pic\mp3 preprcavac\ridici2 program\main.c
004dd0   0e55     MOVLW     0x55           	movlw 0x55                                                                      D:\elektro\pic\mp3 preprcavac\ridici2 program\main.c
004dd2   6ea7     MOVWF     0xa7,0x0       	movwf EECON2,ACCESS                                                             D:\elektro\pic\mp3 preprcavac\ridici2 program\main.c
004dd4   0eaa     MOVLW     0xaa           	movlw 0xAA                                                                      D:\elektro\pic\mp3 preprcavac\ridici2 program\main.c
004dd6   6ea7     MOVWF     0xa7,0x0       	movwf EECON2,ACCESS                                                             D:\elektro\pic\mp3 preprcavac\ridici2 program\main.c
004dd8   82a6     BSF       0xa6,0x1,0x0   	bsf EECON1,1,ACCESS		// Set WR bit to begin write                               D:\elektro\pic\mp3 preprcavac\ridici2 program\main.c
                                             _endasm                                                                        D:\elektro\pic\mp3 preprcavac\ridici2 program\main.c
                                                                                                                            D:\elektro\pic\mp3 preprcavac\ridici2 program\main.c
004dda   8ef2     BSF       0xf2,0x7,0x0     INTCONbits.GIE = 1;		// Enable Interrupts                                      D:\elektro\pic\mp3 preprcavac\ridici2 program\main.c
004ddc   94a6     BCF       0xa6,0x2,0x0     EECON1bits.WREN = 0;	// Disable writes                                         D:\elektro\pic\mp3 preprcavac\ridici2 program\main.c
                                                                                                                            D:\elektro\pic\mp3 preprcavac\ridici2 program\main.c
004dde   b2a6     BTFSC     0xa6,0x1,0x0   	while (EECON1bits.WR);	// pockame, nez se dokonci zapis...                      D:\elektro\pic\mp3 preprcavac\ridici2 program\main.c
004de0   d7fe     BRA       0x4dde                                                                                          
004de2   52e5     MOVF      0xe5,0x1,0x0   }                                                                                D:\elektro\pic\mp3 preprcavac\ridici2 program\main.c
004de4   cfe7     MOVFF     0xfe7,0xfd9                                                                                     
004de6   ffd9                                                                                                               
004de8   0012     RETURN    0x0                                                                                             
                                           ////////////////////////////////////////////////////////////////////////         D:\elektro\pic\mp3 preprcavac\ridici2 program\main.c
                                           ////////////////////////////////////////////////////////////////////////         D:\elektro\pic\mp3 preprcavac\ridici2 program\main.c
004dea   cfd9     MOVFF     0xfd9,0xfe6    void UlozKonfiguraci(void){                                                      D:\elektro\pic\mp3 preprcavac\ridici2 program\main.c
004dec   ffe6                                                                                                               
004dee   cfe1     MOVFF     0xfe1,0xfd9                                                                                     
004df0   ffd9                                                                                                               
004df2   52e6     MOVF      0xe6,0x1,0x0                                                                                    
                                           	unsigned char Dato;                                                             D:\elektro\pic\mp3 preprcavac\ridici2 program\main.c
004df4   6ae6     CLRF      0xe6,0x0       	if (EEPROMRead(0x00)!=Ekvalizer){                                               D:\elektro\pic\mp3 preprcavac\ridici2 program\main.c
004df6   dfcd     RCALL     0x4d92                                                                                          
004df8   52e5     MOVF      0xe5,0x1,0x0                                                                                    
004dfa   0100     MOVLB     0x0                                                                                             
004dfc   5de0     SUBWF     0xe0,0x0,0x1                                                                                    
004dfe   e006     BZ        0x4e0c                                                                                          
004e00   c0e0     MOVFF     0xe0,0xfe6     		EEPROMWrite(0x00,Ekvalizer);                                                   D:\elektro\pic\mp3 preprcavac\ridici2 program\main.c
004e02   ffe6                                                                                                               
004e04   6ae6     CLRF      0xe6,0x0                                                                                        
004e06   dfd5     RCALL     0x4db2                                                                                          
004e08   52e5     MOVF      0xe5,0x1,0x0                                                                                    
004e0a   52e5     MOVF      0xe5,0x1,0x0                                                                                    
                                           	}                                                                               D:\elektro\pic\mp3 preprcavac\ridici2 program\main.c
004e0c   0e01     MOVLW     0x1            	if (EEPROMRead(0x01)!=VypinatDisk){                                             D:\elektro\pic\mp3 preprcavac\ridici2 program\main.c
004e0e   6ee6     MOVWF     0xe6,0x0                                                                                        
004e10   dfc0     RCALL     0x4d92                                                                                          
004e12   52e5     MOVF      0xe5,0x1,0x0                                                                                    
004e14   0100     MOVLB     0x0                                                                                             
004e16   5dea     SUBWF     0xea,0x0,0x1                                                                                    
004e18   e007     BZ        0x4e28                                                                                          
004e1a   c0ea     MOVFF     0xea,0xfe6     		EEPROMWrite(0x01,VypinatDisk);                                                 D:\elektro\pic\mp3 preprcavac\ridici2 program\main.c
004e1c   ffe6                                                                                                               
004e1e   0e01     MOVLW     0x1                                                                                             
004e20   6ee6     MOVWF     0xe6,0x0                                                                                        
004e22   dfc7     RCALL     0x4db2                                                                                          
004e24   52e5     MOVF      0xe5,0x1,0x0                                                                                    
004e26   52e5     MOVF      0xe5,0x1,0x0                                                                                    
                                           	}                                                                               D:\elektro\pic\mp3 preprcavac\ridici2 program\main.c
004e28   0e02     MOVLW     0x2            	if (EEPROMRead(0x02)!=ZtlumitPodsvetleni){                                      D:\elektro\pic\mp3 preprcavac\ridici2 program\main.c
004e2a   6ee6     MOVWF     0xe6,0x0                                                                                        
004e2c   dfb2     RCALL     0x4d92                                                                                          
004e2e   52e5     MOVF      0xe5,0x1,0x0                                                                                    
004e30   0100     MOVLB     0x0                                                                                             
004e32   5deb     SUBWF     0xeb,0x0,0x1                                                                                    
004e34   e007     BZ        0x4e44                                                                                          
004e36   c0eb     MOVFF     0xeb,0xfe6     		EEPROMWrite(0x02,ZtlumitPodsvetleni);                                          D:\elektro\pic\mp3 preprcavac\ridici2 program\main.c
004e38   ffe6                                                                                                               
004e3a   0e02     MOVLW     0x2                                                                                             
004e3c   6ee6     MOVWF     0xe6,0x0                                                                                        
004e3e   dfb9     RCALL     0x4db2                                                                                          
004e40   52e5     MOVF      0xe5,0x1,0x0                                                                                    
004e42   52e5     MOVF      0xe5,0x1,0x0                                                                                    
                                           	}                                                                               D:\elektro\pic\mp3 preprcavac\ridici2 program\main.c
004e44   c0e2     MOVFF     0xe2,0xfdf     	Dato=PodsvetleniLCD;                                                            D:\elektro\pic\mp3 preprcavac\ridici2 program\main.c
004e46   ffdf                                                                                                               
004e48   0e03     MOVLW     0x3            	if (EEPROMRead(0x03)!=Dato){                                                    D:\elektro\pic\mp3 preprcavac\ridici2 program\main.c
004e4a   6ee6     MOVWF     0xe6,0x0                                                                                        
004e4c   dfa2     RCALL     0x4d92                                                                                          
004e4e   52e5     MOVF      0xe5,0x1,0x0                                                                                    
004e50   6e14     MOVWF     0x14,0x0                                                                                        
004e52   50df     MOVF      0xdf,0x0,0x0                                                                                    
004e54   5c14     SUBWF     0x14,0x0,0x0                                                                                    
004e56   e007     BZ        0x4e66                                                                                          
004e58   cfdf     MOVFF     0xfdf,0xfe6    		EEPROMWrite(0x03,Dato);                                                        D:\elektro\pic\mp3 preprcavac\ridici2 program\main.c
004e5a   ffe6                                                                                                               
004e5c   0e03     MOVLW     0x3                                                                                             
004e5e   6ee6     MOVWF     0xe6,0x0                                                                                        
004e60   dfa8     RCALL     0x4db2                                                                                          
004e62   52e5     MOVF      0xe5,0x1,0x0                                                                                    
004e64   52e5     MOVF      0xe5,0x1,0x0                                                                                    
                                           	}                                                                               D:\elektro\pic\mp3 preprcavac\ridici2 program\main.c
004e66   c0e3     MOVFF     0xe3,0x14      	Dato=PodsvetleniLCD >> 8;                                                       D:\elektro\pic\mp3 preprcavac\ridici2 program\main.c
004e68   f014                                                                                                               
004e6a   6a15     CLRF      0x15,0x0                                                                                        
004e6c   5014     MOVF      0x14,0x0,0x0                                                                                    
004e6e   6edf     MOVWF     0xdf,0x0                                                                                        
004e70   0e04     MOVLW     0x4            	if (EEPROMRead(0x04)!=Dato){                                                    D:\elektro\pic\mp3 preprcavac\ridici2 program\main.c
004e72   6ee6     MOVWF     0xe6,0x0                                                                                        
004e74   df8e     RCALL     0x4d92                                                                                          
004e76   52e5     MOVF      0xe5,0x1,0x0                                                                                    
004e78   6e14     MOVWF     0x14,0x0                                                                                        
004e7a   50df     MOVF      0xdf,0x0,0x0                                                                                    
004e7c   5c14     SUBWF     0x14,0x0,0x0                                                                                    
004e7e   e007     BZ        0x4e8e                                                                                          
004e80   cfdf     MOVFF     0xfdf,0xfe6    		EEPROMWrite(0x04,Dato);                                                        D:\elektro\pic\mp3 preprcavac\ridici2 program\main.c
004e82   ffe6                                                                                                               
004e84   0e04     MOVLW     0x4                                                                                             
004e86   6ee6     MOVWF     0xe6,0x0                                                                                        
004e88   df94     RCALL     0x4db2                                                                                          
004e8a   52e5     MOVF      0xe5,0x1,0x0                                                                                    
004e8c   52e5     MOVF      0xe5,0x1,0x0                                                                                    
                                           	}                                                                               D:\elektro\pic\mp3 preprcavac\ridici2 program\main.c
004e8e   c0e6     MOVFF     0xe6,0xfdf     	Dato=PodsvetleniTlacitek;                                                       D:\elektro\pic\mp3 preprcavac\ridici2 program\main.c
004e90   ffdf                                                                                                               
004e92   0e05     MOVLW     0x5            	if (EEPROMRead(0x05)!=Dato){                                                    D:\elektro\pic\mp3 preprcavac\ridici2 program\main.c
004e94   6ee6     MOVWF     0xe6,0x0                                                                                        
004e96   df7d     RCALL     0x4d92                                                                                          
004e98   52e5     MOVF      0xe5,0x1,0x0                                                                                    
004e9a   6e14     MOVWF     0x14,0x0                                                                                        
004e9c   50df     MOVF      0xdf,0x0,0x0                                                                                    
004e9e   5c14     SUBWF     0x14,0x0,0x0                                                                                    
004ea0   e007     BZ        0x4eb0                                                                                          
004ea2   cfdf     MOVFF     0xfdf,0xfe6    		EEPROMWrite(0x05,Dato);                                                        D:\elektro\pic\mp3 preprcavac\ridici2 program\main.c
004ea4   ffe6                                                                                                               
004ea6   0e05     MOVLW     0x5                                                                                             
004ea8   6ee6     MOVWF     0xe6,0x0                                                                                        
004eaa   df83     RCALL     0x4db2                                                                                          
004eac   52e5     MOVF      0xe5,0x1,0x0                                                                                    
004eae   52e5     MOVF      0xe5,0x1,0x0                                                                                    
                                           	}                                                                               D:\elektro\pic\mp3 preprcavac\ridici2 program\main.c
004eb0   c0e7     MOVFF     0xe7,0x14      	Dato=PodsvetleniTlacitek >> 8;                                                  D:\elektro\pic\mp3 preprcavac\ridici2 program\main.c
004eb2   f014                                                                                                               
004eb4   6a15     CLRF      0x15,0x0                                                                                        
004eb6   5014     MOVF      0x14,0x0,0x0                                                                                    
004eb8   6edf     MOVWF     0xdf,0x0                                                                                        
004eba   0e06     MOVLW     0x6            	if (EEPROMRead(0x06)!=Dato){                                                    D:\elektro\pic\mp3 preprcavac\ridici2 program\main.c
004ebc   6ee6     MOVWF     0xe6,0x0                                                                                        
004ebe   df69     RCALL     0x4d92                                                                                          
004ec0   52e5     MOVF      0xe5,0x1,0x0                                                                                    
004ec2   6e14     MOVWF     0x14,0x0                                                                                        
004ec4   50df     MOVF      0xdf,0x0,0x0                                                                                    
004ec6   5c14     SUBWF     0x14,0x0,0x0                                                                                    
004ec8   e007     BZ        0x4ed8                                                                                          
004eca   cfdf     MOVFF     0xfdf,0xfe6    		EEPROMWrite(0x06,Dato);                                                        D:\elektro\pic\mp3 preprcavac\ridici2 program\main.c
004ecc   ffe6                                                                                                               
004ece   0e06     MOVLW     0x6                                                                                             
004ed0   6ee6     MOVWF     0xe6,0x0                                                                                        
004ed2   df6f     RCALL     0x4db2                                                                                          
004ed4   52e5     MOVF      0xe5,0x1,0x0                                                                                    
004ed6   52e5     MOVF      0xe5,0x1,0x0                                                                                    
                                           	}                                                                               D:\elektro\pic\mp3 preprcavac\ridici2 program\main.c
004ed8   52e5     MOVF      0xe5,0x1,0x0   }                                                                                D:\elektro\pic\mp3 preprcavac\ridici2 program\main.c
004eda   52e5     MOVF      0xe5,0x1,0x0                                                                                    
004edc   cfe7     MOVFF     0xfe7,0xfd9                                                                                     
004ede   ffd9                                                                                                               
004ee0   0012     RETURN    0x0                                                                                             
                                           ////////////////////////////////////////////////////////////////////////         D:\elektro\pic\mp3 preprcavac\ridici2 program\main.c
                                           ////////////////////////////////////////////////////////////////////////         D:\elektro\pic\mp3 preprcavac\ridici2 program\main.c
                                           void main (void)                                                                 D:\elektro\pic\mp3 preprcavac\ridici2 program\main.c
                                           {                                                                                D:\elektro\pic\mp3 preprcavac\ridici2 program\main.c
004ee2   de72     RCALL     0x4bc8         	Init();                                                                         D:\elektro\pic\mp3 preprcavac\ridici2 program\main.c
004ee4   ece3     CALL      0x1c6,0x0      	InitLCD();                                                                      D:\elektro\pic\mp3 preprcavac\ridici2 program\main.c
004ee6   f000                                                                                                               
                                                                                                                            D:\elektro\pic\mp3 preprcavac\ridici2 program\main.c
004ee8   0100     MOVLB     0x0            	Hlasitost=0xC0;                                                                 D:\elektro\pic\mp3 preprcavac\ridici2 program\main.c
004eea   0ec0     MOVLW     0xc0                                                                                            
004eec   6f81     MOVWF     0x81,0x1                                                                                        
004eee   6b82     CLRF      0x82,0x1       	Cas.Odehrany=0;                                                                 D:\elektro\pic\mp3 preprcavac\ridici2 program\main.c
004ef0   6b83     CLRF      0x83,0x1                                                                                        
                                                                                                                            D:\elektro\pic\mp3 preprcavac\ridici2 program\main.c
004ef2   6b89     CLRF      0x89,0x1       	Obrazovka=0x00;                                                                 D:\elektro\pic\mp3 preprcavac\ridici2 program\main.c
004ef4   0100     MOVLB     0x0            	Flags.Bit.ZmenaObrazovky=1;                                                     D:\elektro\pic\mp3 preprcavac\ridici2 program\main.c
004ef6   85f0     BSF       0xf0,0x2,0x1                                                                                    
005062   d74a     BRA       0x4ef8           while (1){                                                                     D:\elektro\pic\mp3 preprcavac\ridici2 program\main.c
004ef8   c0e4     MOVFF     0xe4,0xfe6     		SetDCPWM2(AktualniPodsvetleniLCD);                                             D:\elektro\pic\mp3 preprcavac\ridici2 program\main.c
004efa   ffe6                                                                                                               
004efc   c0e5     MOVFF     0xe5,0xfe6                                                                                      
004efe   ffe6                                                                                                               
004f00   ece2     CALL      0x6bc4,0x0                                                                                      
004f02   f035                                                                                                               
004f04   52e5     MOVF      0xe5,0x1,0x0                                                                                    
004f06   52e5     MOVF      0xe5,0x1,0x0                                                                                    
004f08   c0e8     MOVFF     0xe8,0xfe6     		SetDCPWM1(AktualniPodsvetleniTlacitek);                                        D:\elektro\pic\mp3 preprcavac\ridici2 program\main.c
004f0a   ffe6                                                                                                               
004f0c   c0e9     MOVFF     0xe9,0xfe6                                                                                      
004f0e   ffe6                                                                                                               
004f10   ec11     CALL      0x6c22,0x0                                                                                      
004f12   f036                                                                                                               
004f14   52e5     MOVF      0xe5,0x1,0x0                                                                                    
004f16   52e5     MOVF      0xe5,0x1,0x0                                                                                    
                                                                                                                            D:\elektro\pic\mp3 preprcavac\ridici2 program\main.c
                                           		// oseten nastaven hlasitosti                                            D:\elektro\pic\mp3 preprcavac\ridici2 program\main.c
004f18   0100     MOVLB     0x0            		if (Flags.Bit.NactenOddil){                                                    D:\elektro\pic\mp3 preprcavac\ridici2 program\main.c
004f1a   a9f0     BTFSS     0xf0,0x4,0x1                                                                                    
004f1c   d060     BRA       0x4fde                                                                                          
004f1e   de30     RCALL     0x4b80         			CtiStavPrehravani();                                                          D:\elektro\pic\mp3 preprcavac\ridici2 program\main.c
004f20   5084     MOVF      0x84,0x0,0x0   		if (ATlVolUp && ATlVolDown){                                                   D:\elektro\pic\mp3 preprcavac\ridici2 program\main.c
004f22   0b02     ANDLW     0x2                                                                                             
004f24   e00d     BZ        0x4f40                                                                                          
004f26   5084     MOVF      0x84,0x0,0x0                                                                                    
004f28   0b01     ANDLW     0x1                                                                                             
004f2a   e00a     BZ        0x4f40                                                                                          
                                           			// mute                                                                       D:\elektro\pic\mp3 preprcavac\ridici2 program\main.c
004f2c   0100     MOVLB     0x0            			PREHSTAV1.Bit.Mute=1;                                                         D:\elektro\pic\mp3 preprcavac\ridici2 program\main.c
004f2e   89f3     BSF       0xf3,0x4,0x1                                                                                    
004f30   87f0     BSF       0xf0,0x3,0x1   			Flags.Bit.ZmenaHlasitosti=1;                                                  D:\elektro\pic\mp3 preprcavac\ridici2 program\main.c
004f32   de18     RCALL     0x4b64         			NastavStavPrehravani();                                                       D:\elektro\pic\mp3 preprcavac\ridici2 program\main.c
004f34   0e28     MOVLW     0x28           			Delay10KTCYx(40);	// 80ms = 400 000 instrukci                                 D:\elektro\pic\mp3 preprcavac\ridici2 program\main.c
004f36   6ee6     MOVWF     0xe6,0x0                                                                                        
004f38   ecad     CALL      0x6d5a,0x0                                                                                      
004f3a   f036                                                                                                               
004f3c   52e5     MOVF      0xe5,0x1,0x0                                                                                    
                                           			// protoze se nikdy nepovede pustit tlacitka soucasne, proto tato prodleva    D:\elektro\pic\mp3 preprcavac\ridici2 program\main.c
004f3e   d04f     BRA       0x4fde         		}else{			                                                                      D:\elektro\pic\mp3 preprcavac\ridici2 program\main.c
004f40   0100     MOVLB     0x0            			if ((PREHSTAV1.Bit.Mute) && ((ATlVolUp) || (ATlVolDown))){                    D:\elektro\pic\mp3 preprcavac\ridici2 program\main.c
004f42   51f3     MOVF      0xf3,0x0,0x1                                                                                    
004f44   0b10     ANDLW     0x10                                                                                            
004f46   e009     BZ        0x4f5a                                                                                          
004f48   5084     MOVF      0x84,0x0,0x0                                                                                    
004f4a   0b02     ANDLW     0x2                                                                                             
004f4c   e103     BNZ       0x4f54                                                                                          
004f4e   5084     MOVF      0x84,0x0,0x0                                                                                    
004f50   0b01     ANDLW     0x1                                                                                             
004f52   e003     BZ        0x4f5a                                                                                          
004f54   87f0     BSF       0xf0,0x3,0x1   				Flags.Bit.ZmenaHlasitosti=1;                                                 D:\elektro\pic\mp3 preprcavac\ridici2 program\main.c
004f56   99f3     BCF       0xf3,0x4,0x1   				PREHSTAV1.Bit.Mute=0;                                                        D:\elektro\pic\mp3 preprcavac\ridici2 program\main.c
004f58   de05     RCALL     0x4b64         				NastavStavPrehravani();                                                      D:\elektro\pic\mp3 preprcavac\ridici2 program\main.c
                                           			}                                                                             D:\elektro\pic\mp3 preprcavac\ridici2 program\main.c
004f5a   5084     MOVF      0x84,0x0,0x0   			if (ATlVolUp && (Hlasitost<=(0xFF-4))){                                       D:\elektro\pic\mp3 preprcavac\ridici2 program\main.c
004f5c   0b02     ANDLW     0x2                                                                                             
004f5e   e01e     BZ        0x4f9c                                                                                          
004f60   0100     MOVLB     0x0                                                                                             
004f62   5181     MOVF      0x81,0x0,0x1                                                                                    
004f64   08fb     SUBLW     0xfb                                                                                            
004f66   e31a     BNC       0x4f9c                                                                                          
004f68   0e04     MOVLW     0x4            				Hlasitost=Hlasitost+4;                                                       D:\elektro\pic\mp3 preprcavac\ridici2 program\main.c
004f6a   2581     ADDWF     0x81,0x0,0x1                                                                                    
004f6c   6f81     MOVWF     0x81,0x1                                                                                        
004f6e   0e82     MOVLW     0x82           				WrUsart(0x82);                                                               D:\elektro\pic\mp3 preprcavac\ridici2 program\main.c
004f70   6ee6     MOVWF     0xe6,0x0                                                                                        
004f72   dde7     RCALL     0x4b42                                                                                          
004f74   52e5     MOVF      0xe5,0x1,0x0                                                                                    
004f76   0100     MOVLB     0x0            				i=0xFF-Hlasitost;	// protoze v dekoderu je 00 maximalni a 255 minimalni      D:\elektro\pic\mp3 preprcavac\ridici2 program\main.c
004f78   2981     INCF      0x81,0x0,0x1                                                                                    
004f7a   6ce8     NEGF      0xe8,0x0                                                                                        
004f7c   6fb4     MOVWF     0xb4,0x1                                                                                        
004f7e   6ee6     MOVWF     0xe6,0x0       				WrUsart(i);                                                                  D:\elektro\pic\mp3 preprcavac\ridici2 program\main.c
004f80   dde0     RCALL     0x4b42                                                                                          
004f82   52e5     MOVF      0xe5,0x1,0x0                                                                                    
004f84   c0b4     MOVFF     0xb4,0xfe6     				WrUsart(i);                                                                  D:\elektro\pic\mp3 preprcavac\ridici2 program\main.c
004f86   ffe6                                                                                                               
004f88   dddc     RCALL     0x4b42                                                                                          
004f8a   52e5     MOVF      0xe5,0x1,0x0                                                                                    
004f8c   0100     MOVLB     0x0            				Flags.Bit.ZmenaHlasitosti=1;                                                 D:\elektro\pic\mp3 preprcavac\ridici2 program\main.c
004f8e   87f0     BSF       0xf0,0x3,0x1                                                                                    
                                                                                                                            D:\elektro\pic\mp3 preprcavac\ridici2 program\main.c
004f90   0e14     MOVLW     0x14           				Delay10KTCYx(20);	// 40ms = 200 000 instrukci                                D:\elektro\pic\mp3 preprcavac\ridici2 program\main.c
004f92   6ee6     MOVWF     0xe6,0x0                                                                                        
004f94   ecad     CALL      0x6d5a,0x0                                                                                      
004f96   f036                                                                                                               
004f98   52e5     MOVF      0xe5,0x1,0x0                                                                                    
                                           												// kdyz se neprehrava mp3 je odezva obsluzneho procesoru temer okamzita D:\elektro\pic\mp3 preprcavac\ridici2 program\main.c
                                           												// proto tady cekame, aby zmena hlasitosti nebyla moc rychla (kdyz se neprehrava) D:\elektro\pic\mp3 preprcavac\ridici2 program\main.c
004f9a   dde0     RCALL     0x4b5c         				RdUsart();				                                                               D:\elektro\pic\mp3 preprcavac\ridici2 program\main.c
                                           			}                                                                             D:\elektro\pic\mp3 preprcavac\ridici2 program\main.c
004f9c   5084     MOVF      0x84,0x0,0x0   			if (ATlVolDown && (Hlasitost>=4)){                                            D:\elektro\pic\mp3 preprcavac\ridici2 program\main.c
004f9e   0b01     ANDLW     0x1                                                                                             
004fa0   e01e     BZ        0x4fde                                                                                          
004fa2   0e04     MOVLW     0x4                                                                                             
004fa4   0100     MOVLB     0x0                                                                                             
004fa6   5d81     SUBWF     0x81,0x0,0x1                                                                                    
004fa8   e31a     BNC       0x4fde                                                                                          
004faa   0e04     MOVLW     0x4            				Hlasitost=Hlasitost-4;                                                       D:\elektro\pic\mp3 preprcavac\ridici2 program\main.c
004fac   5d81     SUBWF     0x81,0x0,0x1                                                                                    
004fae   6f81     MOVWF     0x81,0x1                                                                                        
004fb0   0e82     MOVLW     0x82           				WrUsart(0x82);                                                               D:\elektro\pic\mp3 preprcavac\ridici2 program\main.c
004fb2   6ee6     MOVWF     0xe6,0x0                                                                                        
004fb4   ddc6     RCALL     0x4b42                                                                                          
004fb6   52e5     MOVF      0xe5,0x1,0x0                                                                                    
004fb8   0100     MOVLB     0x0            				i=0xFF-Hlasitost;	// protoze v dekoderu je 00 maximalni a 255 minimalni      D:\elektro\pic\mp3 preprcavac\ridici2 program\main.c
004fba   2981     INCF      0x81,0x0,0x1                                                                                    
004fbc   6ce8     NEGF      0xe8,0x0                                                                                        
004fbe   6fb4     MOVWF     0xb4,0x1                                                                                        
004fc0   6ee6     MOVWF     0xe6,0x0       				WrUsart(i);                                                                  D:\elektro\pic\mp3 preprcavac\ridici2 program\main.c
004fc2   ddbf     RCALL     0x4b42                                                                                          
004fc4   52e5     MOVF      0xe5,0x1,0x0                                                                                    
004fc6   c0b4     MOVFF     0xb4,0xfe6     				WrUsart(i);                                                                  D:\elektro\pic\mp3 preprcavac\ridici2 program\main.c
004fc8   ffe6                                                                                                               
004fca   ddbb     RCALL     0x4b42                                                                                          
004fcc   52e5     MOVF      0xe5,0x1,0x0                                                                                    
004fce   0100     MOVLB     0x0            				Flags.Bit.ZmenaHlasitosti=1;                                                 D:\elektro\pic\mp3 preprcavac\ridici2 program\main.c
004fd0   87f0     BSF       0xf0,0x3,0x1                                                                                    
                                                                                                                            D:\elektro\pic\mp3 preprcavac\ridici2 program\main.c
004fd2   0e14     MOVLW     0x14           				Delay10KTCYx(20);	// 40ms = 200 000 instrukci                                D:\elektro\pic\mp3 preprcavac\ridici2 program\main.c
004fd4   6ee6     MOVWF     0xe6,0x0                                                                                        
004fd6   ecad     CALL      0x6d5a,0x0                                                                                      
004fd8   f036                                                                                                               
004fda   52e5     MOVF      0xe5,0x1,0x0                                                                                    
                                           												// kdyz se neprehrava mp3 je odezva obsluzneho procesoru temer okamzita D:\elektro\pic\mp3 preprcavac\ridici2 program\main.c
                                           												// proto tady cekame, aby zmena hlasitosti nebyla moc rychla (kdyz se neprehrava) D:\elektro\pic\mp3 preprcavac\ridici2 program\main.c
004fdc   ddbf     RCALL     0x4b5c         				RdUsart();				                                                               D:\elektro\pic\mp3 preprcavac\ridici2 program\main.c
                                           			}                                                                             D:\elektro\pic\mp3 preprcavac\ridici2 program\main.c
                                           		}                                                                              D:\elektro\pic\mp3 preprcavac\ridici2 program\main.c
                                           		}                                                                              D:\elektro\pic\mp3 preprcavac\ridici2 program\main.c
                                           		////////////////////////////////////////////////////////////////////////       D:\elektro\pic\mp3 preprcavac\ridici2 program\main.c
                                                                                                                            D:\elektro\pic\mp3 preprcavac\ridici2 program\main.c
004fde   0100     MOVLB     0x0            		if (Obrazovka==0x00){                                                          D:\elektro\pic\mp3 preprcavac\ridici2 program\main.c
004fe0   5189     MOVF      0x89,0x0,0x1                                                                                    
004fe2   e102     BNZ       0x4fe8                                                                                          
                                           			//volat proceduru pro nacteni disku                                           D:\elektro\pic\mp3 preprcavac\ridici2 program\main.c
004fe4   ecfd     CALL      0x1bfa,0x0     			CekejNaDisk();                                                                D:\elektro\pic\mp3 preprcavac\ridici2 program\main.c
004fe6   f00d                                                                                                               
                                           		}                                                                              D:\elektro\pic\mp3 preprcavac\ridici2 program\main.c
004fe8   0100     MOVLB     0x0            		if (Obrazovka==0x01){                                                          D:\elektro\pic\mp3 preprcavac\ridici2 program\main.c
004fea   0589     DECF      0x89,0x0,0x1                                                                                    
004fec   e102     BNZ       0x4ff2                                                                                          
                                           			//volat proceduru pro vyber oddilu                                            D:\elektro\pic\mp3 preprcavac\ridici2 program\main.c
004fee   ec0b     CALL      0x1e16,0x0     			VyberOddilu();                                                                D:\elektro\pic\mp3 preprcavac\ridici2 program\main.c
004ff0   f00f                                                                                                               
                                           		}                                                                              D:\elektro\pic\mp3 preprcavac\ridici2 program\main.c
004ff2   0e10     MOVLW     0x10           		if(Obrazovka>=0x10 && Obrazovka<0x20){                                         D:\elektro\pic\mp3 preprcavac\ridici2 program\main.c
004ff4   0100     MOVLB     0x0                                                                                             
004ff6   5d89     SUBWF     0x89,0x0,0x1                                                                                    
004ff8   e305     BNC       0x5004                                                                                          
004ffa   0e20     MOVLW     0x20                                                                                            
004ffc   5d89     SUBWF     0x89,0x0,0x1                                                                                    
004ffe   e202     BC        0x5004                                                                                          
                                           			//volat procedururu pro prehravani                                            D:\elektro\pic\mp3 preprcavac\ridici2 program\main.c
005000   ec0d     CALL      0x241a,0x0     			Prehravani();                                                                 D:\elektro\pic\mp3 preprcavac\ridici2 program\main.c
005002   f012                                                                                                               
                                           		}                                                                              D:\elektro\pic\mp3 preprcavac\ridici2 program\main.c
005004   0e20     MOVLW     0x20           		if(Obrazovka>=0x20 && Obrazovka<0x30){                                         D:\elektro\pic\mp3 preprcavac\ridici2 program\main.c
005006   0100     MOVLB     0x0                                                                                             
005008   5d89     SUBWF     0x89,0x0,0x1                                                                                    
00500a   e305     BNC       0x5016                                                                                          
00500c   0e30     MOVLW     0x30                                                                                            
00500e   5d89     SUBWF     0x89,0x0,0x1                                                                                    
005010   e202     BC        0x5016                                                                                          
                                           			//volat procedururu pro prochazeni slozkami                                   D:\elektro\pic\mp3 preprcavac\ridici2 program\main.c
005012   ecf6     CALL      0x3fec,0x0     			Pruzkumnik();                                                                 D:\elektro\pic\mp3 preprcavac\ridici2 program\main.c
005014   f01f                                                                                                               
                                           		}                                                                              D:\elektro\pic\mp3 preprcavac\ridici2 program\main.c
005016   0e30     MOVLW     0x30           		if(Obrazovka>=0x30 && Obrazovka<0x40){                                         D:\elektro\pic\mp3 preprcavac\ridici2 program\main.c
005018   0100     MOVLB     0x0                                                                                             
00501a   5d89     SUBWF     0x89,0x0,0x1                                                                                    
00501c   e305     BNC       0x5028                                                                                          
00501e   0e40     MOVLW     0x40                                                                                            
005020   5d89     SUBWF     0x89,0x0,0x1                                                                                    
005022   e202     BC        0x5028                                                                                          
                                           			//volat procedururu pro menu                                                  D:\elektro\pic\mp3 preprcavac\ridici2 program\main.c
005024   ecbe     CALL      0x97c,0x0      			Menu();                                                                       D:\elektro\pic\mp3 preprcavac\ridici2 program\main.c
005026   f004                                                                                                               
                                           		}                                                                              D:\elektro\pic\mp3 preprcavac\ridici2 program\main.c
005028   0e40     MOVLW     0x40           		if(Obrazovka>=0x40 && Obrazovka<0x50){                                         D:\elektro\pic\mp3 preprcavac\ridici2 program\main.c
00502a   0100     MOVLB     0x0                                                                                             
00502c   5d89     SUBWF     0x89,0x0,0x1                                                                                    
00502e   e305     BNC       0x503a                                                                                          
005030   0e50     MOVLW     0x50                                                                                            
005032   5d89     SUBWF     0x89,0x0,0x1                                                                                    
005034   e202     BC        0x503a                                                                                          
                                           			//volat procedururu pro moznosti prehravani                                   D:\elektro\pic\mp3 preprcavac\ridici2 program\main.c
005036   ece6     CALL      0x15cc,0x0     			moznosti();                                                                   D:\elektro\pic\mp3 preprcavac\ridici2 program\main.c
005038   f00a                                                                                                               
                                           		}                                                                              D:\elektro\pic\mp3 preprcavac\ridici2 program\main.c
00503a   0e50     MOVLW     0x50           		if(Obrazovka>=0x50 && Obrazovka<0x60){                                         D:\elektro\pic\mp3 preprcavac\ridici2 program\main.c
00503c   0100     MOVLB     0x0                                                                                             
00503e   5d89     SUBWF     0x89,0x0,0x1                                                                                    
005040   e305     BNC       0x504c                                                                                          
005042   0e60     MOVLW     0x60                                                                                            
005044   5d89     SUBWF     0x89,0x0,0x1                                                                                    
005046   e202     BC        0x504c                                                                                          
                                           			//volat procedururu pro nastaveni prehravace                                  D:\elektro\pic\mp3 preprcavac\ridici2 program\main.c
005048   ec97     CALL      0xf2e,0x0      			nastaveni();                                                                  D:\elektro\pic\mp3 preprcavac\ridici2 program\main.c
00504a   f007                                                                                                               
                                           		}                                                                              D:\elektro\pic\mp3 preprcavac\ridici2 program\main.c
00504c   0e60     MOVLW     0x60           		if(Obrazovka>=0x60 && Obrazovka<0xFF){                                         D:\elektro\pic\mp3 preprcavac\ridici2 program\main.c
00504e   0100     MOVLB     0x0                                                                                             
005050   5d89     SUBWF     0x89,0x0,0x1                                                                                    
005052   e201     BC        0x5056                                                                                          
005054   d751     BRA       0x4ef8                                                                                          
005056   0eff     MOVLW     0xff                                                                                            
005058   5d89     SUBWF     0x89,0x0,0x1                                                                                    
00505a   e301     BNC       0x505e                                                                                          
00505c   d74d     BRA       0x4ef8                                                                                          
                                           			//volat procedururu pro standby                                               D:\elektro\pic\mp3 preprcavac\ridici2 program\main.c
00505e   ec88     CALL      0xd10,0x0      			standby();                                                                    D:\elektro\pic\mp3 preprcavac\ridici2 program\main.c
005060   f006                                                                                                               
                                           		}                                                                              D:\elektro\pic\mp3 preprcavac\ridici2 program\main.c
                                           	}                                                                               D:\elektro\pic\mp3 preprcavac\ridici2 program\main.c
                                           }                                                                                D:\elektro\pic\mp3 preprcavac\ridici2 program\main.c
                                                   LIST                                                                     C:\MCC18\MPASM\p18cxxx.inc
                                           ; P18CXXX.INC  Standard Header File, Microchip Technology, Inc.                  C:\MCC18\MPASM\p18cxxx.inc
                                                   LIST                                                                     C:\MCC18\MPASM\P18C452.INC
                                           ; P18C452.INC  Standard Header File, Version 0.12   Microchip Technology, Inc.   C:\MCC18\MPASM\P18C452.INC
                                                   LIST                                                                     C:\MCC18\MPASM\P18C452.INC
                                             ENDIF                                                                          C:\MCC18\MPASM\p18cxxx.inc
                                             IFDEF __18C242                                                                 C:\MCC18\MPASM\p18cxxx.inc
                                                INCLUDE <p18C242.INC>                                                       C:\MCC18\MPASM\p18cxxx.inc
                                             ENDIF                                                                          C:\MCC18\MPASM\p18cxxx.inc
                                             IFDEF __18C252                                                                 C:\MCC18\MPASM\p18cxxx.inc
                                                INCLUDE <p18C252.INC>                                                       C:\MCC18\MPASM\p18cxxx.inc
                                             ENDIF                                                                          C:\MCC18\MPASM\p18cxxx.inc
                                             IFDEF __18C442                                                                 C:\MCC18\MPASM\p18cxxx.inc
                                                INCLUDE <p18C442.INC>                                                       C:\MCC18\MPASM\p18cxxx.inc
                                             ENDIF                                                                          C:\MCC18\MPASM\p18cxxx.inc
                                             IFDEF __18C452                                                                 C:\MCC18\MPASM\p18cxxx.inc
                                                INCLUDE <p18C452.INC>                                                       C:\MCC18\MPASM\p18cxxx.inc
                                             ENDIF                                                                          C:\MCC18\MPASM\p18cxxx.inc
                                             IFDEF __18C601                                                                 C:\MCC18\MPASM\p18cxxx.inc
                                                INCLUDE <p18C601.INC>                                                       C:\MCC18\MPASM\p18cxxx.inc
                                             ENDIF                                                                          C:\MCC18\MPASM\p18cxxx.inc
                                             IFDEF __18C658                                                                 C:\MCC18\MPASM\p18cxxx.inc
                                                INCLUDE <p18C658.INC>                                                       C:\MCC18\MPASM\p18cxxx.inc
                                             ENDIF                                                                          C:\MCC18\MPASM\p18cxxx.inc
                                             IFDEF __18C801                                                                 C:\MCC18\MPASM\p18cxxx.inc
                                                INCLUDE <p18C801.INC>                                                       C:\MCC18\MPASM\p18cxxx.inc
                                             ENDIF                                                                          C:\MCC18\MPASM\p18cxxx.inc
                                             IFDEF __18C858                                                                 C:\MCC18\MPASM\p18cxxx.inc
                                                INCLUDE <p18C858.INC>                                                       C:\MCC18\MPASM\p18cxxx.inc
                                             ENDIF                                                                          C:\MCC18\MPASM\p18cxxx.inc
                                             IFDEF __18F1220                                                                C:\MCC18\MPASM\p18cxxx.inc
                                                INCLUDE <p18F1220.INC>                                                      C:\MCC18\MPASM\p18cxxx.inc
                                             ENDIF                                                                          C:\MCC18\MPASM\p18cxxx.inc
                                             IFDEF __18F1230                                                                C:\MCC18\MPASM\p18cxxx.inc
                                                INCLUDE <p18F1230.INC>                                                      C:\MCC18\MPASM\p18cxxx.inc
                                             ENDIF                                                                          C:\MCC18\MPASM\p18cxxx.inc
                                             IFDEF __18F1320                                                                C:\MCC18\MPASM\p18cxxx.inc
                                                INCLUDE <p18F1320.INC>                                                      C:\MCC18\MPASM\p18cxxx.inc
                                             ENDIF                                                                          C:\MCC18\MPASM\p18cxxx.inc
                                             IFDEF __18F1330                                                                C:\MCC18\MPASM\p18cxxx.inc
                                                INCLUDE <p18F1330.INC>                                                      C:\MCC18\MPASM\p18cxxx.inc
                                             ENDIF                                                                          C:\MCC18\MPASM\p18cxxx.inc
                                             IFDEF __18F2220                                                                C:\MCC18\MPASM\p18cxxx.inc
                                                INCLUDE <p18F2220.INC>                                                      C:\MCC18\MPASM\p18cxxx.inc
                                             ENDIF                                                                          C:\MCC18\MPASM\p18cxxx.inc
                                             IFDEF __18F2221                                                                C:\MCC18\MPASM\p18cxxx.inc
                                                INCLUDE <p18F2221.INC>                                                      C:\MCC18\MPASM\p18cxxx.inc
                                             ENDIF                                                                          C:\MCC18\MPASM\p18cxxx.inc
                                             IFDEF __18F2320                                                                C:\MCC18\MPASM\p18cxxx.inc
                                                INCLUDE <p18F2320.INC>                                                      C:\MCC18\MPASM\p18cxxx.inc
                                             ENDIF                                                                          C:\MCC18\MPASM\p18cxxx.inc
                                             IFDEF __18F2321                                                                C:\MCC18\MPASM\p18cxxx.inc
                                                INCLUDE <p18F2321.INC>                                                      C:\MCC18\MPASM\p18cxxx.inc
                                             ENDIF                                                                          C:\MCC18\MPASM\p18cxxx.inc
                                             IFDEF __18F2331                                                                C:\MCC18\MPASM\p18cxxx.inc
                                                INCLUDE <p18F2331.INC>                                                      C:\MCC18\MPASM\p18cxxx.inc
                                             ENDIF                                                                          C:\MCC18\MPASM\p18cxxx.inc
                                             IFDEF __18F2410                                                                C:\MCC18\MPASM\p18cxxx.inc
                                                INCLUDE <p18F2410.INC>                                                      C:\MCC18\MPASM\p18cxxx.inc
                                             ENDIF                                                                          C:\MCC18\MPASM\p18cxxx.inc
                                             IFDEF __18F242                                                                 C:\MCC18\MPASM\p18cxxx.inc
                                                INCLUDE <p18F242.INC>                                                       C:\MCC18\MPASM\p18cxxx.inc
                                             ENDIF                                                                          C:\MCC18\MPASM\p18cxxx.inc
                                             IFDEF __18F2420                                                                C:\MCC18\MPASM\p18cxxx.inc
                                                INCLUDE <p18F2420.INC>                                                      C:\MCC18\MPASM\p18cxxx.inc
                                             ENDIF                                                                          C:\MCC18\MPASM\p18cxxx.inc
                                             IFDEF __18F2423                                                                C:\MCC18\MPASM\p18cxxx.inc
                                                INCLUDE <p18F2423.INC>                                                      C:\MCC18\MPASM\p18cxxx.inc
                                             ENDIF                                                                          C:\MCC18\MPASM\p18cxxx.inc
                                             IFDEF __18F2431                                                                C:\MCC18\MPASM\p18cxxx.inc
                                                INCLUDE <p18F2431.INC>                                                      C:\MCC18\MPASM\p18cxxx.inc
                                             ENDIF                                                                          C:\MCC18\MPASM\p18cxxx.inc
                                             IFDEF __18F2439                                                                C:\MCC18\MPASM\p18cxxx.inc
                                                INCLUDE <p18F2439.INC>                                                      C:\MCC18\MPASM\p18cxxx.inc
                                             ENDIF                                                                          C:\MCC18\MPASM\p18cxxx.inc
                                             IFDEF __18F2450                                                                C:\MCC18\MPASM\p18cxxx.inc
                                                INCLUDE <p18F2450.INC>                                                      C:\MCC18\MPASM\p18cxxx.inc
                                             ENDIF                                                                          C:\MCC18\MPASM\p18cxxx.inc
                                             IFDEF __18F2455                                                                C:\MCC18\MPASM\p18cxxx.inc
                                                INCLUDE <p18F2455.INC>                                                      C:\MCC18\MPASM\p18cxxx.inc
                                             ENDIF                                                                          C:\MCC18\MPASM\p18cxxx.inc
                                             IFDEF __18F2458                                                                C:\MCC18\MPASM\p18cxxx.inc
                                                INCLUDE <p18F2458.INC>                                                      C:\MCC18\MPASM\p18cxxx.inc
                                             ENDIF                                                                          C:\MCC18\MPASM\p18cxxx.inc
                                             IFDEF __18F248                                                                 C:\MCC18\MPASM\p18cxxx.inc
                                                INCLUDE <p18F248.INC>                                                       C:\MCC18\MPASM\p18cxxx.inc
                                             ENDIF                                                                          C:\MCC18\MPASM\p18cxxx.inc
                                             IFDEF __18F2480                                                                C:\MCC18\MPASM\p18cxxx.inc
                                                INCLUDE <p18F2480.INC>                                                      C:\MCC18\MPASM\p18cxxx.inc
                                             ENDIF                                                                          C:\MCC18\MPASM\p18cxxx.inc
                                             IFDEF __18F24J10                                                               C:\MCC18\MPASM\p18cxxx.inc
                                                INCLUDE <p18F24J10.INC>                                                     C:\MCC18\MPASM\p18cxxx.inc
                                             ENDIF                                                                          C:\MCC18\MPASM\p18cxxx.inc
                                             IFDEF __18F24K20                                                               C:\MCC18\MPASM\p18cxxx.inc
                                                INCLUDE <p18F24K20.INC>                                                     C:\MCC18\MPASM\p18cxxx.inc
                                             ENDIF                                                                          C:\MCC18\MPASM\p18cxxx.inc
                                             IFDEF __18F2510                                                                C:\MCC18\MPASM\p18cxxx.inc
                                                INCLUDE <p18F2510.INC>                                                      C:\MCC18\MPASM\p18cxxx.inc
                                             ENDIF                                                                          C:\MCC18\MPASM\p18cxxx.inc
                                             IFDEF __18F2515                                                                C:\MCC18\MPASM\p18cxxx.inc
                                                INCLUDE <p18F2515.INC>                                                      C:\MCC18\MPASM\p18cxxx.inc
                                             ENDIF                                                                          C:\MCC18\MPASM\p18cxxx.inc
                                             IFDEF __18F252                                                                 C:\MCC18\MPASM\p18cxxx.inc
                                                INCLUDE <p18F252.INC>                                                       C:\MCC18\MPASM\p18cxxx.inc
                                             ENDIF                                                                          C:\MCC18\MPASM\p18cxxx.inc
                                             IFDEF __18F2520                                                                C:\MCC18\MPASM\p18cxxx.inc
                                                INCLUDE <p18F2520.INC>                                                      C:\MCC18\MPASM\p18cxxx.inc
                                             ENDIF                                                                          C:\MCC18\MPASM\p18cxxx.inc
                                             IFDEF __18F2523                                                                C:\MCC18\MPASM\p18cxxx.inc
                                                INCLUDE <p18F2523.INC>                                                      C:\MCC18\MPASM\p18cxxx.inc
                                             ENDIF                                                                          C:\MCC18\MPASM\p18cxxx.inc
                                             IFDEF __18F2525                                                                C:\MCC18\MPASM\p18cxxx.inc
                                                INCLUDE <p18F2525.INC>                                                      C:\MCC18\MPASM\p18cxxx.inc
                                             ENDIF                                                                          C:\MCC18\MPASM\p18cxxx.inc
                                             IFDEF __18F2539                                                                C:\MCC18\MPASM\p18cxxx.inc
                                                INCLUDE <p18F2539.INC>                                                      C:\MCC18\MPASM\p18cxxx.inc
                                             ENDIF                                                                          C:\MCC18\MPASM\p18cxxx.inc
                                             IFDEF __18F2550                                                                C:\MCC18\MPASM\p18cxxx.inc
                                                INCLUDE <p18F2550.INC>                                                      C:\MCC18\MPASM\p18cxxx.inc
                                             ENDIF                                                                          C:\MCC18\MPASM\p18cxxx.inc
                                             IFDEF __18F2553                                                                C:\MCC18\MPASM\p18cxxx.inc
                                                INCLUDE <p18F2553.INC>                                                      C:\MCC18\MPASM\p18cxxx.inc
                                             ENDIF                                                                          C:\MCC18\MPASM\p18cxxx.inc
                                             IFDEF __18F258                                                                 C:\MCC18\MPASM\p18cxxx.inc
                                                INCLUDE <p18F258.INC>                                                       C:\MCC18\MPASM\p18cxxx.inc
                                             ENDIF                                                                          C:\MCC18\MPASM\p18cxxx.inc
                                             IFDEF __18F2580                                                                C:\MCC18\MPASM\p18cxxx.inc
                                                INCLUDE <p18F2580.INC>                                                      C:\MCC18\MPASM\p18cxxx.inc
                                             ENDIF                                                                          C:\MCC18\MPASM\p18cxxx.inc
                                             IFDEF __18F2585                                                                C:\MCC18\MPASM\p18cxxx.inc
                                                INCLUDE <p18F2585.INC>                                                      C:\MCC18\MPASM\p18cxxx.inc
                                             ENDIF                                                                          C:\MCC18\MPASM\p18cxxx.inc
                                             IFDEF __18F25J10                                                               C:\MCC18\MPASM\p18cxxx.inc
                                                INCLUDE <p18F25J10.INC>                                                     C:\MCC18\MPASM\p18cxxx.inc
                                             ENDIF                                                                          C:\MCC18\MPASM\p18cxxx.inc
                                             IFDEF __18F25K20                                                               C:\MCC18\MPASM\p18cxxx.inc
                                                INCLUDE <p18F25K20.INC>                                                     C:\MCC18\MPASM\p18cxxx.inc
                                             ENDIF                                                                          C:\MCC18\MPASM\p18cxxx.inc
                                             IFDEF __18F2610                                                                C:\MCC18\MPASM\p18cxxx.inc
                                                INCLUDE <p18F2610.INC>                                                      C:\MCC18\MPASM\p18cxxx.inc
                                             ENDIF                                                                          C:\MCC18\MPASM\p18cxxx.inc
                                             IFDEF __18F2620                                                                C:\MCC18\MPASM\p18cxxx.inc
                                                INCLUDE <p18F2620.INC>                                                      C:\MCC18\MPASM\p18cxxx.inc
                                             ENDIF                                                                          C:\MCC18\MPASM\p18cxxx.inc
                                             IFDEF __18F2680                                                                C:\MCC18\MPASM\p18cxxx.inc
                                                INCLUDE <p18F2680.INC>                                                      C:\MCC18\MPASM\p18cxxx.inc
                                             ENDIF                                                                          C:\MCC18\MPASM\p18cxxx.inc
                                             IFDEF __18F2682                                                                C:\MCC18\MPASM\p18cxxx.inc
                                                INCLUDE <p18F2682.INC>                                                      C:\MCC18\MPASM\p18cxxx.inc
                                             ENDIF                                                                          C:\MCC18\MPASM\p18cxxx.inc
                                             IFDEF __18F2685                                                                C:\MCC18\MPASM\p18cxxx.inc
                                                INCLUDE <p18F2685.INC>                                                      C:\MCC18\MPASM\p18cxxx.inc
                                             ENDIF                                                                          C:\MCC18\MPASM\p18cxxx.inc
                                             IFDEF __18F26K20                                                               C:\MCC18\MPASM\p18cxxx.inc
                                                INCLUDE <p18F26K20.INC>                                                     C:\MCC18\MPASM\p18cxxx.inc
                                             ENDIF                                                                          C:\MCC18\MPASM\p18cxxx.inc
                                             IFDEF __18F4220                                                                C:\MCC18\MPASM\p18cxxx.inc
                                                INCLUDE <p18F4220.INC>                                                      C:\MCC18\MPASM\p18cxxx.inc
                                             ENDIF                                                                          C:\MCC18\MPASM\p18cxxx.inc
                                             IFDEF __18F4221                                                                C:\MCC18\MPASM\p18cxxx.inc
                                                INCLUDE <p18F4221.INC>                                                      C:\MCC18\MPASM\p18cxxx.inc
                                             ENDIF                                                                          C:\MCC18\MPASM\p18cxxx.inc
                                             IFDEF __18F4320                                                                C:\MCC18\MPASM\p18cxxx.inc
                                                INCLUDE <p18F4320.INC>                                                      C:\MCC18\MPASM\p18cxxx.inc
                                             ENDIF                                                                          C:\MCC18\MPASM\p18cxxx.inc
                                             IFDEF __18F4321                                                                C:\MCC18\MPASM\p18cxxx.inc
                                                INCLUDE <p18F4321.INC>                                                      C:\MCC18\MPASM\p18cxxx.inc
                                             ENDIF                                                                          C:\MCC18\MPASM\p18cxxx.inc
                                             IFDEF __18F4331                                                                C:\MCC18\MPASM\p18cxxx.inc
                                                INCLUDE <p18F4331.INC>                                                      C:\MCC18\MPASM\p18cxxx.inc
                                             ENDIF                                                                          C:\MCC18\MPASM\p18cxxx.inc
                                             IFDEF __18F4410                                                                C:\MCC18\MPASM\p18cxxx.inc
                                                INCLUDE <p18F4410.INC>                                                      C:\MCC18\MPASM\p18cxxx.inc
                                             ENDIF                                                                          C:\MCC18\MPASM\p18cxxx.inc
                                             IFDEF __18F442                                                                 C:\MCC18\MPASM\p18cxxx.inc
                                                INCLUDE <p18F442.INC>                                                       C:\MCC18\MPASM\p18cxxx.inc
                                             ENDIF                                                                          C:\MCC18\MPASM\p18cxxx.inc
                                             IFDEF __18F4420                                                                C:\MCC18\MPASM\p18cxxx.inc
                                                INCLUDE <p18F4420.INC>                                                      C:\MCC18\MPASM\p18cxxx.inc
                                             ENDIF                                                                          C:\MCC18\MPASM\p18cxxx.inc
                                             IFDEF __18F4423                                                                C:\MCC18\MPASM\p18cxxx.inc
                                                INCLUDE <p18F4423.INC>                                                      C:\MCC18\MPASM\p18cxxx.inc
                                             ENDIF                                                                          C:\MCC18\MPASM\p18cxxx.inc
                                             IFDEF __18F4431                                                                C:\MCC18\MPASM\p18cxxx.inc
                                                INCLUDE <p18F4431.INC>                                                      C:\MCC18\MPASM\p18cxxx.inc
                                             ENDIF                                                                          C:\MCC18\MPASM\p18cxxx.inc
                                             IFDEF __18F4439                                                                C:\MCC18\MPASM\p18cxxx.inc
                                                INCLUDE <p18F4439.INC>                                                      C:\MCC18\MPASM\p18cxxx.inc
                                             ENDIF                                                                          C:\MCC18\MPASM\p18cxxx.inc
                                             IFDEF __18F4450                                                                C:\MCC18\MPASM\p18cxxx.inc
                                                INCLUDE <p18F4450.INC>                                                      C:\MCC18\MPASM\p18cxxx.inc
                                             ENDIF                                                                          C:\MCC18\MPASM\p18cxxx.inc
                                             IFDEF __18F4455                                                                C:\MCC18\MPASM\p18cxxx.inc
                                                INCLUDE <p18F4455.INC>                                                      C:\MCC18\MPASM\p18cxxx.inc
                                             ENDIF                                                                          C:\MCC18\MPASM\p18cxxx.inc
                                             IFDEF __18F4458                                                                C:\MCC18\MPASM\p18cxxx.inc
                                                INCLUDE <p18F4458.INC>                                                      C:\MCC18\MPASM\p18cxxx.inc
                                             ENDIF                                                                          C:\MCC18\MPASM\p18cxxx.inc
                                             IFDEF __18F448                                                                 C:\MCC18\MPASM\p18cxxx.inc
                                                INCLUDE <p18F448.INC>                                                       C:\MCC18\MPASM\p18cxxx.inc
                                             ENDIF                                                                          C:\MCC18\MPASM\p18cxxx.inc
                                             IFDEF __18F4480                                                                C:\MCC18\MPASM\p18cxxx.inc
                                                INCLUDE <p18F4480.INC>                                                      C:\MCC18\MPASM\p18cxxx.inc
                                             ENDIF                                                                          C:\MCC18\MPASM\p18cxxx.inc
                                             IFDEF __18F44J10                                                               C:\MCC18\MPASM\p18cxxx.inc
                                                INCLUDE <p18F44J10.INC>                                                     C:\MCC18\MPASM\p18cxxx.inc
                                             ENDIF                                                                          C:\MCC18\MPASM\p18cxxx.inc
                                             IFDEF __18F44K20                                                               C:\MCC18\MPASM\p18cxxx.inc
                                                INCLUDE <p18F44K20.INC>                                                     C:\MCC18\MPASM\p18cxxx.inc
                                             ENDIF                                                                          C:\MCC18\MPASM\p18cxxx.inc
                                             IFDEF __18F4510                                                                C:\MCC18\MPASM\p18cxxx.inc
                                                INCLUDE <p18F4510.INC>                                                      C:\MCC18\MPASM\p18cxxx.inc
                                             ENDIF                                                                          C:\MCC18\MPASM\p18cxxx.inc
                                             IFDEF __18F4515                                                                C:\MCC18\MPASM\p18cxxx.inc
                                                INCLUDE <p18F4515.INC>                                                      C:\MCC18\MPASM\p18cxxx.inc
                                             ENDIF                                                                          C:\MCC18\MPASM\p18cxxx.inc
                                             IFDEF __18F452                                                                 C:\MCC18\MPASM\p18cxxx.inc
                                                INCLUDE <p18F452.INC>                                                       C:\MCC18\MPASM\p18cxxx.inc
                                             ENDIF                                                                          C:\MCC18\MPASM\p18cxxx.inc
                                             IFDEF __18F4520                                                                C:\MCC18\MPASM\p18cxxx.inc
                                                INCLUDE <p18F4520.INC>                                                      C:\MCC18\MPASM\p18cxxx.inc
                                             ENDIF                                                                          C:\MCC18\MPASM\p18cxxx.inc
                                             IFDEF __18F4523                                                                C:\MCC18\MPASM\p18cxxx.inc
                                                INCLUDE <p18F4523.INC>                                                      C:\MCC18\MPASM\p18cxxx.inc
                                             ENDIF                                                                          C:\MCC18\MPASM\p18cxxx.inc
                                             IFDEF __18F4525                                                                C:\MCC18\MPASM\p18cxxx.inc
                                                INCLUDE <p18F4525.INC>                                                      C:\MCC18\MPASM\p18cxxx.inc
                                             ENDIF                                                                          C:\MCC18\MPASM\p18cxxx.inc
                                             IFDEF __18F4539                                                                C:\MCC18\MPASM\p18cxxx.inc
                                                INCLUDE <p18F4539.INC>                                                      C:\MCC18\MPASM\p18cxxx.inc
                                             ENDIF                                                                          C:\MCC18\MPASM\p18cxxx.inc
                                             IFDEF __18F4550                                                                C:\MCC18\MPASM\p18cxxx.inc
                                                INCLUDE <p18F4550.INC>                                                      C:\MCC18\MPASM\p18cxxx.inc
                                             ENDIF                                                                          C:\MCC18\MPASM\p18cxxx.inc
                                             IFDEF __18F4553                                                                C:\MCC18\MPASM\p18cxxx.inc
                                                INCLUDE <p18F4553.INC>                                                      C:\MCC18\MPASM\p18cxxx.inc
                                             ENDIF                                                                          C:\MCC18\MPASM\p18cxxx.inc
                                             IFDEF __18F458                                                                 C:\MCC18\MPASM\p18cxxx.inc
                                                INCLUDE <p18F458.INC>                                                       C:\MCC18\MPASM\p18cxxx.inc
                                             ENDIF                                                                          C:\MCC18\MPASM\p18cxxx.inc
                                             IFDEF __18F4580                                                                C:\MCC18\MPASM\p18cxxx.inc
                                                INCLUDE <p18F4580.INC>                                                      C:\MCC18\MPASM\p18cxxx.inc
                                             ENDIF                                                                          C:\MCC18\MPASM\p18cxxx.inc
                                             IFDEF __18F4585                                                                C:\MCC18\MPASM\p18cxxx.inc
                                                INCLUDE <p18F4585.INC>                                                      C:\MCC18\MPASM\p18cxxx.inc
                                             ENDIF                                                                          C:\MCC18\MPASM\p18cxxx.inc
                                             IFDEF __18F45J10                                                               C:\MCC18\MPASM\p18cxxx.inc
                                                INCLUDE <p18F45J10.INC>                                                     C:\MCC18\MPASM\p18cxxx.inc
                                             ENDIF                                                                          C:\MCC18\MPASM\p18cxxx.inc
                                             IFDEF __18F45K20                                                               C:\MCC18\MPASM\p18cxxx.inc
                                                INCLUDE <p18F45K20.INC>                                                     C:\MCC18\MPASM\p18cxxx.inc
                                             ENDIF                                                                          C:\MCC18\MPASM\p18cxxx.inc
                                             IFDEF __18F4610                                                                C:\MCC18\MPASM\p18cxxx.inc
                                                INCLUDE <p18F4610.INC>                                                      C:\MCC18\MPASM\p18cxxx.inc
                                             ENDIF                                                                          C:\MCC18\MPASM\p18cxxx.inc
                                             IFDEF __18F4620                                                                C:\MCC18\MPASM\p18cxxx.inc
                                                INCLUDE <p18F4620.INC>                                                      C:\MCC18\MPASM\p18cxxx.inc
                                             ENDIF                                                                          C:\MCC18\MPASM\p18cxxx.inc
                                             IFDEF __18F4680                                                                C:\MCC18\MPASM\p18cxxx.inc
                                                INCLUDE <p18F4680.INC>                                                      C:\MCC18\MPASM\p18cxxx.inc
                                             ENDIF                                                                          C:\MCC18\MPASM\p18cxxx.inc
                                             IFDEF __18F4682                                                                C:\MCC18\MPASM\p18cxxx.inc
                                                INCLUDE <p18F4682.INC>                                                      C:\MCC18\MPASM\p18cxxx.inc
                                             ENDIF                                                                          C:\MCC18\MPASM\p18cxxx.inc
                                             IFDEF __18F4685                                                                C:\MCC18\MPASM\p18cxxx.inc
                                                INCLUDE <p18F4685.INC>                                                      C:\MCC18\MPASM\p18cxxx.inc
                                             ENDIF                                                                          C:\MCC18\MPASM\p18cxxx.inc
                                             IFDEF __18F46K20                                                               C:\MCC18\MPASM\p18cxxx.inc
                                                INCLUDE <p18F46K20.INC>                                                     C:\MCC18\MPASM\p18cxxx.inc
                                             ENDIF                                                                          C:\MCC18\MPASM\p18cxxx.inc
                                             IFDEF __18F6310                                                                C:\MCC18\MPASM\p18cxxx.inc
                                                INCLUDE <p18F6310.INC>                                                      C:\MCC18\MPASM\p18cxxx.inc
                                             ENDIF                                                                          C:\MCC18\MPASM\p18cxxx.inc
                                             IFDEF __18F6390                                                                C:\MCC18\MPASM\p18cxxx.inc
                                                INCLUDE <p18F6390.INC>                                                      C:\MCC18\MPASM\p18cxxx.inc
                                             ENDIF                                                                          C:\MCC18\MPASM\p18cxxx.inc
                                             IFDEF __18F63J11                                                               C:\MCC18\MPASM\p18cxxx.inc
                                                INCLUDE <p18F63J11.INC>                                                     C:\MCC18\MPASM\p18cxxx.inc
                                             ENDIF                                                                          C:\MCC18\MPASM\p18cxxx.inc
                                             IFDEF __18F63J90                                                               C:\MCC18\MPASM\p18cxxx.inc
                                                INCLUDE <p18F63J90.INC>                                                     C:\MCC18\MPASM\p18cxxx.inc
                                             ENDIF                                                                          C:\MCC18\MPASM\p18cxxx.inc
                                             IFDEF __18F6410                                                                C:\MCC18\MPASM\p18cxxx.inc
                                                INCLUDE <p18F6410.INC>                                                      C:\MCC18\MPASM\p18cxxx.inc
                                             ENDIF                                                                          C:\MCC18\MPASM\p18cxxx.inc
                                             IFDEF __18F6490                                                                C:\MCC18\MPASM\p18cxxx.inc
                                                INCLUDE <p18F6490.INC>                                                      C:\MCC18\MPASM\p18cxxx.inc
                                             ENDIF                                                                          C:\MCC18\MPASM\p18cxxx.inc
                                             IFDEF __18F64J11                                                               C:\MCC18\MPASM\p18cxxx.inc
                                                INCLUDE <p18F64J11.INC>                                                     C:\MCC18\MPASM\p18cxxx.inc
                                             ENDIF                                                                          C:\MCC18\MPASM\p18cxxx.inc
                                             IFDEF __18F64J90                                                               C:\MCC18\MPASM\p18cxxx.inc
                                                INCLUDE <p18F64J90.INC>                                                     C:\MCC18\MPASM\p18cxxx.inc
                                             ENDIF                                                                          C:\MCC18\MPASM\p18cxxx.inc
                                             IFDEF __18F6520                                                                C:\MCC18\MPASM\p18cxxx.inc
                                                INCLUDE <p18F6520.INC>                                                      C:\MCC18\MPASM\p18cxxx.inc
                                             ENDIF                                                                          C:\MCC18\MPASM\p18cxxx.inc
                                             IFDEF __18F6525                                                                C:\MCC18\MPASM\p18cxxx.inc
                                                INCLUDE <p18F6525.INC>                                                      C:\MCC18\MPASM\p18cxxx.inc
                                             ENDIF                                                                          C:\MCC18\MPASM\p18cxxx.inc
                                             IFDEF __18F6527                                                                C:\MCC18\MPASM\p18cxxx.inc
                                                INCLUDE <p18F6527.INC>                                                      C:\MCC18\MPASM\p18cxxx.inc
                                             ENDIF                                                                          C:\MCC18\MPASM\p18cxxx.inc
                                             IFDEF __18F6585                                                                C:\MCC18\MPASM\p18cxxx.inc
                                                INCLUDE <p18F6585.INC>                                                      C:\MCC18\MPASM\p18cxxx.inc
                                             ENDIF                                                                          C:\MCC18\MPASM\p18cxxx.inc
                                             IFDEF __18F65J10                                                               C:\MCC18\MPASM\p18cxxx.inc
                                                INCLUDE <p18F65J10.INC>                                                     C:\MCC18\MPASM\p18cxxx.inc
                                             ENDIF                                                                          C:\MCC18\MPASM\p18cxxx.inc
                                             IFDEF __18F65J11                                                               C:\MCC18\MPASM\p18cxxx.inc
                                                INCLUDE <p18F65J11.INC>                                                     C:\MCC18\MPASM\p18cxxx.inc
                                             ENDIF                                                                          C:\MCC18\MPASM\p18cxxx.inc
                                             IFDEF __18F65J15                                                               C:\MCC18\MPASM\p18cxxx.inc
                                                INCLUDE <p18F65J15.INC>                                                     C:\MCC18\MPASM\p18cxxx.inc
                                             ENDIF                                                                          C:\MCC18\MPASM\p18cxxx.inc
                                             IFDEF __18F65J50                                                               C:\MCC18\MPASM\p18cxxx.inc
                                                INCLUDE <p18F65J50.INC>                                                     C:\MCC18\MPASM\p18cxxx.inc
                                             ENDIF                                                                          C:\MCC18\MPASM\p18cxxx.inc
                                             IFDEF __18F65J90                                                               C:\MCC18\MPASM\p18cxxx.inc
                                                INCLUDE <p18F65J90.INC>                                                     C:\MCC18\MPASM\p18cxxx.inc
                                             ENDIF                                                                          C:\MCC18\MPASM\p18cxxx.inc
                                             IFDEF __18F6620                                                                C:\MCC18\MPASM\p18cxxx.inc
                                                INCLUDE <p18F6620.INC>                                                      C:\MCC18\MPASM\p18cxxx.inc
                                             ENDIF                                                                          C:\MCC18\MPASM\p18cxxx.inc
                                             IFDEF __18F6621                                                                C:\MCC18\MPASM\p18cxxx.inc
                                                INCLUDE <p18F6621.INC>                                                      C:\MCC18\MPASM\p18cxxx.inc
                                             ENDIF                                                                          C:\MCC18\MPASM\p18cxxx.inc
                                             IFDEF __18F6622                                                                C:\MCC18\MPASM\p18cxxx.inc
                                                INCLUDE <p18F6622.INC>                                                      C:\MCC18\MPASM\p18cxxx.inc
                                             ENDIF                                                                          C:\MCC18\MPASM\p18cxxx.inc
                                             IFDEF __18F6627                                                                C:\MCC18\MPASM\p18cxxx.inc
                                                INCLUDE <p18F6627.INC>                                                      C:\MCC18\MPASM\p18cxxx.inc
                                             ENDIF                                                                          C:\MCC18\MPASM\p18cxxx.inc
                                             IFDEF __18F6628                                                                C:\MCC18\MPASM\p18cxxx.inc
                                                INCLUDE <p18F6628.INC>                                                      C:\MCC18\MPASM\p18cxxx.inc
                                             ENDIF                                                                          C:\MCC18\MPASM\p18cxxx.inc
                                             IFDEF __18F6680                                                                C:\MCC18\MPASM\p18cxxx.inc
                                                INCLUDE <p18F6680.INC>                                                      C:\MCC18\MPASM\p18cxxx.inc
                                             ENDIF                                                                          C:\MCC18\MPASM\p18cxxx.inc
                                             IFDEF __18F66J10                                                               C:\MCC18\MPASM\p18cxxx.inc
                                                INCLUDE <p18F66J10.INC>                                                     C:\MCC18\MPASM\p18cxxx.inc
                                             ENDIF                                                                          C:\MCC18\MPASM\p18cxxx.inc
                                             IFDEF __18F66J11                                                               C:\MCC18\MPASM\p18cxxx.inc
                                                INCLUDE <p18F66J11.INC>                                                     C:\MCC18\MPASM\p18cxxx.inc
                                             ENDIF                                                                          C:\MCC18\MPASM\p18cxxx.inc
                                             IFDEF __18F66J15                                                               C:\MCC18\MPASM\p18cxxx.inc
                                                INCLUDE <p18F66J15.INC>                                                     C:\MCC18\MPASM\p18cxxx.inc
                                             ENDIF                                                                          C:\MCC18\MPASM\p18cxxx.inc
                                             IFDEF __18F66J16                                                               C:\MCC18\MPASM\p18cxxx.inc
                                                INCLUDE <p18F66J16.INC>                                                     C:\MCC18\MPASM\p18cxxx.inc
                                             ENDIF                                                                          C:\MCC18\MPASM\p18cxxx.inc
                                             IFDEF __18F66J50                                                               C:\MCC18\MPASM\p18cxxx.inc
                                                INCLUDE <p18F66J50.INC>                                                     C:\MCC18\MPASM\p18cxxx.inc
                                             ENDIF                                                                          C:\MCC18\MPASM\p18cxxx.inc
                                             IFDEF __18F66J55                                                               C:\MCC18\MPASM\p18cxxx.inc
                                                INCLUDE <p18F66J55.INC>                                                     C:\MCC18\MPASM\p18cxxx.inc
                                             ENDIF                                                                          C:\MCC18\MPASM\p18cxxx.inc
                                             IFDEF __18F66J60                                                               C:\MCC18\MPASM\p18cxxx.inc
                                                INCLUDE <p18F66J60.INC>                                                     C:\MCC18\MPASM\p18cxxx.inc
                                             ENDIF                                                                          C:\MCC18\MPASM\p18cxxx.inc
                                             IFDEF __18F66J65                                                               C:\MCC18\MPASM\p18cxxx.inc
                                                INCLUDE <p18F66J65.INC>                                                     C:\MCC18\MPASM\p18cxxx.inc
                                             ENDIF                                                                          C:\MCC18\MPASM\p18cxxx.inc
                                             IFDEF __18F6720                                                                C:\MCC18\MPASM\p18cxxx.inc
                                                INCLUDE <p18F6720.INC>                                                      C:\MCC18\MPASM\p18cxxx.inc
                                             ENDIF                                                                          C:\MCC18\MPASM\p18cxxx.inc
                                             IFDEF __18F6722                                                                C:\MCC18\MPASM\p18cxxx.inc
                                                INCLUDE <p18F6722.INC>                                                      C:\MCC18\MPASM\p18cxxx.inc
                                             ENDIF                                                                          C:\MCC18\MPASM\p18cxxx.inc
                                             IFDEF __18F6723                                                                C:\MCC18\MPASM\p18cxxx.inc
                                                INCLUDE <p18F6723.INC>                                                      C:\MCC18\MPASM\p18cxxx.inc
                                             ENDIF                                                                          C:\MCC18\MPASM\p18cxxx.inc
                                             IFDEF __18F67J10                                                               C:\MCC18\MPASM\p18cxxx.inc
                                                INCLUDE <p18F67J10.INC>                                                     C:\MCC18\MPASM\p18cxxx.inc
                                             ENDIF                                                                          C:\MCC18\MPASM\p18cxxx.inc
                                             IFDEF __18F67J11                                                               C:\MCC18\MPASM\p18cxxx.inc
                                                INCLUDE <p18F67J11.INC>                                                     C:\MCC18\MPASM\p18cxxx.inc
                                             ENDIF                                                                          C:\MCC18\MPASM\p18cxxx.inc
                                             IFDEF __18F67J50                                                               C:\MCC18\MPASM\p18cxxx.inc
                                                INCLUDE <p18F67J50.INC>                                                     C:\MCC18\MPASM\p18cxxx.inc
                                             ENDIF                                                                          C:\MCC18\MPASM\p18cxxx.inc
                                             IFDEF __18F67J60                                                               C:\MCC18\MPASM\p18cxxx.inc
                                                INCLUDE <p18F67J60.INC>                                                     C:\MCC18\MPASM\p18cxxx.inc
                                             ENDIF                                                                          C:\MCC18\MPASM\p18cxxx.inc
                                             IFDEF __18F8310                                                                C:\MCC18\MPASM\p18cxxx.inc
                                                INCLUDE <p18F8310.INC>                                                      C:\MCC18\MPASM\p18cxxx.inc
                                             ENDIF                                                                          C:\MCC18\MPASM\p18cxxx.inc
                                             IFDEF __18F8390                                                                C:\MCC18\MPASM\p18cxxx.inc
                                                INCLUDE <p18F8390.INC>                                                      C:\MCC18\MPASM\p18cxxx.inc
                                             ENDIF                                                                          C:\MCC18\MPASM\p18cxxx.inc
                                             IFDEF __18F83J11                                                               C:\MCC18\MPASM\p18cxxx.inc
                                                INCLUDE <p18F83J11.INC>                                                     C:\MCC18\MPASM\p18cxxx.inc
                                             ENDIF                                                                          C:\MCC18\MPASM\p18cxxx.inc
                                             IFDEF __18F83J90                                                               C:\MCC18\MPASM\p18cxxx.inc
                                                INCLUDE <p18F83J90.INC>                                                     C:\MCC18\MPASM\p18cxxx.inc
                                             ENDIF                                                                          C:\MCC18\MPASM\p18cxxx.inc
                                             IFDEF __18F8410                                                                C:\MCC18\MPASM\p18cxxx.inc
                                                INCLUDE <p18F8410.INC>                                                      C:\MCC18\MPASM\p18cxxx.inc
                                             ENDIF                                                                          C:\MCC18\MPASM\p18cxxx.inc
                                             IFDEF __18F8490                                                                C:\MCC18\MPASM\p18cxxx.inc
                                                INCLUDE <p18F8490.INC>                                                      C:\MCC18\MPASM\p18cxxx.inc
                                             ENDIF                                                                          C:\MCC18\MPASM\p18cxxx.inc
                                             IFDEF __18F84J11                                                               C:\MCC18\MPASM\p18cxxx.inc
                                                INCLUDE <p18F84J11.INC>                                                     C:\MCC18\MPASM\p18cxxx.inc
                                             ENDIF                                                                          C:\MCC18\MPASM\p18cxxx.inc
                                             IFDEF __18F84J90                                                               C:\MCC18\MPASM\p18cxxx.inc
                                                INCLUDE <p18F84J90.INC>                                                     C:\MCC18\MPASM\p18cxxx.inc
                                             ENDIF                                                                          C:\MCC18\MPASM\p18cxxx.inc
                                             IFDEF __18F8520                                                                C:\MCC18\MPASM\p18cxxx.inc
                                                INCLUDE <p18F8520.INC>                                                      C:\MCC18\MPASM\p18cxxx.inc
                                             ENDIF                                                                          C:\MCC18\MPASM\p18cxxx.inc
                                             IFDEF __18F8525                                                                C:\MCC18\MPASM\p18cxxx.inc
                                                INCLUDE <p18F8525.INC>                                                      C:\MCC18\MPASM\p18cxxx.inc
                                             ENDIF                                                                          C:\MCC18\MPASM\p18cxxx.inc
                                             IFDEF __18F8527                                                                C:\MCC18\MPASM\p18cxxx.inc
                                                INCLUDE <p18F8527.INC>                                                      C:\MCC18\MPASM\p18cxxx.inc
                                             ENDIF                                                                          C:\MCC18\MPASM\p18cxxx.inc
                                             IFDEF __18F8585                                                                C:\MCC18\MPASM\p18cxxx.inc
                                                INCLUDE <p18F8585.INC>                                                      C:\MCC18\MPASM\p18cxxx.inc
                                             ENDIF                                                                          C:\MCC18\MPASM\p18cxxx.inc
                                             IFDEF __18F85J10                                                               C:\MCC18\MPASM\p18cxxx.inc
                                                INCLUDE <p18F85J10.INC>                                                     C:\MCC18\MPASM\p18cxxx.inc
                                             ENDIF                                                                          C:\MCC18\MPASM\p18cxxx.inc
                                             IFDEF __18F85J11                                                               C:\MCC18\MPASM\p18cxxx.inc
                                                INCLUDE <p18F85J11.INC>                                                     C:\MCC18\MPASM\p18cxxx.inc
                                             ENDIF                                                                          C:\MCC18\MPASM\p18cxxx.inc
                                             IFDEF __18F85J15                                                               C:\MCC18\MPASM\p18cxxx.inc
                                                INCLUDE <p18F85J15.INC>                                                     C:\MCC18\MPASM\p18cxxx.inc
                                             ENDIF                                                                          C:\MCC18\MPASM\p18cxxx.inc
                                             IFDEF __18F85J50                                                               C:\MCC18\MPASM\p18cxxx.inc
                                                INCLUDE <p18F85J50.INC>                                                     C:\MCC18\MPASM\p18cxxx.inc
                                             ENDIF                                                                          C:\MCC18\MPASM\p18cxxx.inc
                                             IFDEF __18F85J90                                                               C:\MCC18\MPASM\p18cxxx.inc
                                                INCLUDE <p18F85J90.INC>                                                     C:\MCC18\MPASM\p18cxxx.inc
                                             ENDIF                                                                          C:\MCC18\MPASM\p18cxxx.inc
                                             IFDEF __18F8620                                                                C:\MCC18\MPASM\p18cxxx.inc
                                                INCLUDE <p18F8620.INC>                                                      C:\MCC18\MPASM\p18cxxx.inc
                                             ENDIF                                                                          C:\MCC18\MPASM\p18cxxx.inc
                                             IFDEF __18F8621                                                                C:\MCC18\MPASM\p18cxxx.inc
                                                INCLUDE <p18F8621.INC>                                                      C:\MCC18\MPASM\p18cxxx.inc
                                             ENDIF                                                                          C:\MCC18\MPASM\p18cxxx.inc
                                             IFDEF __18F8622                                                                C:\MCC18\MPASM\p18cxxx.inc
                                                INCLUDE <p18F8622.INC>                                                      C:\MCC18\MPASM\p18cxxx.inc
                                             ENDIF                                                                          C:\MCC18\MPASM\p18cxxx.inc
                                             IFDEF __18F8627                                                                C:\MCC18\MPASM\p18cxxx.inc
                                                INCLUDE <p18F8627.INC>                                                      C:\MCC18\MPASM\p18cxxx.inc
                                             ENDIF                                                                          C:\MCC18\MPASM\p18cxxx.inc
                                             IFDEF __18F8628                                                                C:\MCC18\MPASM\p18cxxx.inc
                                                INCLUDE <p18F8628.INC>                                                      C:\MCC18\MPASM\p18cxxx.inc
                                             ENDIF                                                                          C:\MCC18\MPASM\p18cxxx.inc
                                             IFDEF __18F8680                                                                C:\MCC18\MPASM\p18cxxx.inc
                                                INCLUDE <p18F8680.INC>                                                      C:\MCC18\MPASM\p18cxxx.inc
                                             ENDIF                                                                          C:\MCC18\MPASM\p18cxxx.inc
                                             IFDEF __18F86J10                                                               C:\MCC18\MPASM\p18cxxx.inc
                                                INCLUDE <p18F86J10.INC>                                                     C:\MCC18\MPASM\p18cxxx.inc
                                             ENDIF                                                                          C:\MCC18\MPASM\p18cxxx.inc
                                             IFDEF __18F86J11                                                               C:\MCC18\MPASM\p18cxxx.inc
                                                INCLUDE <p18F86J11.INC>                                                     C:\MCC18\MPASM\p18cxxx.inc
                                             ENDIF                                                                          C:\MCC18\MPASM\p18cxxx.inc
                                             IFDEF __18F86J15                                                               C:\MCC18\MPASM\p18cxxx.inc
                                                INCLUDE <p18F86J15.INC>                                                     C:\MCC18\MPASM\p18cxxx.inc
                                             ENDIF                                                                          C:\MCC18\MPASM\p18cxxx.inc
                                             IFDEF __18F86J16                                                               C:\MCC18\MPASM\p18cxxx.inc
                                                INCLUDE <p18F86J16.INC>                                                     C:\MCC18\MPASM\p18cxxx.inc
                                             ENDIF                                                                          C:\MCC18\MPASM\p18cxxx.inc
                                             IFDEF __18F86J50                                                               C:\MCC18\MPASM\p18cxxx.inc
                                                INCLUDE <p18F86J50.INC>                                                     C:\MCC18\MPASM\p18cxxx.inc
                                             ENDIF                                                                          C:\MCC18\MPASM\p18cxxx.inc
                                             IFDEF __18F86J55                                                               C:\MCC18\MPASM\p18cxxx.inc
                                                INCLUDE <p18F86J55.INC>                                                     C:\MCC18\MPASM\p18cxxx.inc
                                             ENDIF                                                                          C:\MCC18\MPASM\p18cxxx.inc
                                             IFDEF __18F86J60                                                               C:\MCC18\MPASM\p18cxxx.inc
                                                INCLUDE <p18F86J60.INC>                                                     C:\MCC18\MPASM\p18cxxx.inc
                                             ENDIF                                                                          C:\MCC18\MPASM\p18cxxx.inc
                                             IFDEF __18F86J65                                                               C:\MCC18\MPASM\p18cxxx.inc
                                                INCLUDE <p18F86J65.INC>                                                     C:\MCC18\MPASM\p18cxxx.inc
                                             ENDIF                                                                          C:\MCC18\MPASM\p18cxxx.inc
                                             IFDEF __18F8720                                                                C:\MCC18\MPASM\p18cxxx.inc
                                                INCLUDE <p18F8720.INC>                                                      C:\MCC18\MPASM\p18cxxx.inc
                                             ENDIF                                                                          C:\MCC18\MPASM\p18cxxx.inc
                                             IFDEF __18F8722                                                                C:\MCC18\MPASM\p18cxxx.inc
                                                INCLUDE <p18F8722.INC>                                                      C:\MCC18\MPASM\p18cxxx.inc
                                             ENDIF                                                                          C:\MCC18\MPASM\p18cxxx.inc
                                             IFDEF __18F8723                                                                C:\MCC18\MPASM\p18cxxx.inc
                                                INCLUDE <p18F8723.INC>                                                      C:\MCC18\MPASM\p18cxxx.inc
                                             ENDIF                                                                          C:\MCC18\MPASM\p18cxxx.inc
                                             IFDEF __18F87J10                                                               C:\MCC18\MPASM\p18cxxx.inc
                                                INCLUDE <p18F87J10.INC>                                                     C:\MCC18\MPASM\p18cxxx.inc
                                             ENDIF                                                                          C:\MCC18\MPASM\p18cxxx.inc
                                             IFDEF __18F87J11                                                               C:\MCC18\MPASM\p18cxxx.inc
                                                INCLUDE <p18F87J11.INC>                                                     C:\MCC18\MPASM\p18cxxx.inc
                                             ENDIF                                                                          C:\MCC18\MPASM\p18cxxx.inc
                                             IFDEF __18F87J50                                                               C:\MCC18\MPASM\p18cxxx.inc
                                                INCLUDE <p18F87J50.INC>                                                     C:\MCC18\MPASM\p18cxxx.inc
                                             ENDIF                                                                          C:\MCC18\MPASM\p18cxxx.inc
                                             IFDEF __18F87J60                                                               C:\MCC18\MPASM\p18cxxx.inc
                                                INCLUDE <p18F87J60.INC>                                                     C:\MCC18\MPASM\p18cxxx.inc
                                             ENDIF                                                                          C:\MCC18\MPASM\p18cxxx.inc
                                             IFDEF __18F96J60                                                               C:\MCC18\MPASM\p18cxxx.inc
                                                INCLUDE <p18F96J60.INC>                                                     C:\MCC18\MPASM\p18cxxx.inc
                                             ENDIF                                                                          C:\MCC18\MPASM\p18cxxx.inc
                                             IFDEF __18F96J65                                                               C:\MCC18\MPASM\p18cxxx.inc
                                                INCLUDE <p18F96J65.INC>                                                     C:\MCC18\MPASM\p18cxxx.inc
                                             ENDIF                                                                          C:\MCC18\MPASM\p18cxxx.inc
                                             IFDEF __18F97J60                                                               C:\MCC18\MPASM\p18cxxx.inc
                                                INCLUDE <p18F97J60.INC>                                                     C:\MCC18\MPASM\p18cxxx.inc
                                             ENDIF                                                                          C:\MCC18\MPASM\p18cxxx.inc
                                                                                                                            C:\MCC18\MPASM\p18cxxx.inc
                                                   LIST                                                                     C:\MCC18\MPASM\p18cxxx.inc
                                           ; P18CXXX.INC  Standard Header File, Microchip Technology, Inc.                  C:\MCC18\MPASM\p18cxxx.inc
                                                   LIST                                                                     C:\MCC18\MPASM\P18C452.INC
                                           ; P18C452.INC  Standard Header File, Version 0.12   Microchip Technology, Inc.   C:\MCC18\MPASM\P18C452.INC
                                                   LIST                                                                     C:\MCC18\MPASM\P18C452.INC
                                             ENDIF                                                                          C:\MCC18\MPASM\p18cxxx.inc
                                             IFDEF __18C242                                                                 C:\MCC18\MPASM\p18cxxx.inc
                                                INCLUDE <p18C242.INC>                                                       C:\MCC18\MPASM\p18cxxx.inc
                                             ENDIF                                                                          C:\MCC18\MPASM\p18cxxx.inc
                                             IFDEF __18C252                                                                 C:\MCC18\MPASM\p18cxxx.inc
                                                INCLUDE <p18C252.INC>                                                       C:\MCC18\MPASM\p18cxxx.inc
                                             ENDIF                                                                          C:\MCC18\MPASM\p18cxxx.inc
                                             IFDEF __18C442                                                                 C:\MCC18\MPASM\p18cxxx.inc
                                                INCLUDE <p18C442.INC>                                                       C:\MCC18\MPASM\p18cxxx.inc
                                             ENDIF                                                                          C:\MCC18\MPASM\p18cxxx.inc
                                             IFDEF __18C452                                                                 C:\MCC18\MPASM\p18cxxx.inc
                                                INCLUDE <p18C452.INC>                                                       C:\MCC18\MPASM\p18cxxx.inc
                                             ENDIF                                                                          C:\MCC18\MPASM\p18cxxx.inc
                                             IFDEF __18C601                                                                 C:\MCC18\MPASM\p18cxxx.inc
                                                INCLUDE <p18C601.INC>                                                       C:\MCC18\MPASM\p18cxxx.inc
                                             ENDIF                                                                          C:\MCC18\MPASM\p18cxxx.inc
                                             IFDEF __18C658                                                                 C:\MCC18\MPASM\p18cxxx.inc
                                                INCLUDE <p18C658.INC>                                                       C:\MCC18\MPASM\p18cxxx.inc
                                             ENDIF                                                                          C:\MCC18\MPASM\p18cxxx.inc
                                             IFDEF __18C801                                                                 C:\MCC18\MPASM\p18cxxx.inc
                                                INCLUDE <p18C801.INC>                                                       C:\MCC18\MPASM\p18cxxx.inc
                                             ENDIF                                                                          C:\MCC18\MPASM\p18cxxx.inc
                                             IFDEF __18C858                                                                 C:\MCC18\MPASM\p18cxxx.inc
                                                INCLUDE <p18C858.INC>                                                       C:\MCC18\MPASM\p18cxxx.inc
                                             ENDIF                                                                          C:\MCC18\MPASM\p18cxxx.inc
                                             IFDEF __18F1220                                                                C:\MCC18\MPASM\p18cxxx.inc
                                                INCLUDE <p18F1220.INC>                                                      C:\MCC18\MPASM\p18cxxx.inc
                                             ENDIF                                                                          C:\MCC18\MPASM\p18cxxx.inc
                                             IFDEF __18F1230                                                                C:\MCC18\MPASM\p18cxxx.inc
                                                INCLUDE <p18F1230.INC>                                                      C:\MCC18\MPASM\p18cxxx.inc
                                             ENDIF                                                                          C:\MCC18\MPASM\p18cxxx.inc
                                             IFDEF __18F1320                                                                C:\MCC18\MPASM\p18cxxx.inc
                                                INCLUDE <p18F1320.INC>                                                      C:\MCC18\MPASM\p18cxxx.inc
                                             ENDIF                                                                          C:\MCC18\MPASM\p18cxxx.inc
                                             IFDEF __18F1330                                                                C:\MCC18\MPASM\p18cxxx.inc
                                                INCLUDE <p18F1330.INC>                                                      C:\MCC18\MPASM\p18cxxx.inc
                                             ENDIF                                                                          C:\MCC18\MPASM\p18cxxx.inc
                                             IFDEF __18F2220                                                                C:\MCC18\MPASM\p18cxxx.inc
                                                INCLUDE <p18F2220.INC>                                                      C:\MCC18\MPASM\p18cxxx.inc
                                             ENDIF                                                                          C:\MCC18\MPASM\p18cxxx.inc
                                             IFDEF __18F2221                                                                C:\MCC18\MPASM\p18cxxx.inc
                                                INCLUDE <p18F2221.INC>                                                      C:\MCC18\MPASM\p18cxxx.inc
                                             ENDIF                                                                          C:\MCC18\MPASM\p18cxxx.inc
                                             IFDEF __18F2320                                                                C:\MCC18\MPASM\p18cxxx.inc
                                                INCLUDE <p18F2320.INC>                                                      C:\MCC18\MPASM\p18cxxx.inc
                                             ENDIF                                                                          C:\MCC18\MPASM\p18cxxx.inc
                                             IFDEF __18F2321                                                                C:\MCC18\MPASM\p18cxxx.inc
                                                INCLUDE <p18F2321.INC>                                                      C:\MCC18\MPASM\p18cxxx.inc
                                             ENDIF                                                                          C:\MCC18\MPASM\p18cxxx.inc
                                             IFDEF __18F2331                                                                C:\MCC18\MPASM\p18cxxx.inc
                                                INCLUDE <p18F2331.INC>                                                      C:\MCC18\MPASM\p18cxxx.inc
                                             ENDIF                                                                          C:\MCC18\MPASM\p18cxxx.inc
                                             IFDEF __18F2410                                                                C:\MCC18\MPASM\p18cxxx.inc
                                                INCLUDE <p18F2410.INC>                                                      C:\MCC18\MPASM\p18cxxx.inc
                                             ENDIF                                                                          C:\MCC18\MPASM\p18cxxx.inc
                                             IFDEF __18F242                                                                 C:\MCC18\MPASM\p18cxxx.inc
                                                INCLUDE <p18F242.INC>                                                       C:\MCC18\MPASM\p18cxxx.inc
                                             ENDIF                                                                          C:\MCC18\MPASM\p18cxxx.inc
                                             IFDEF __18F2420                                                                C:\MCC18\MPASM\p18cxxx.inc
                                                INCLUDE <p18F2420.INC>                                                      C:\MCC18\MPASM\p18cxxx.inc
                                             ENDIF                                                                          C:\MCC18\MPASM\p18cxxx.inc
                                             IFDEF __18F2423                                                                C:\MCC18\MPASM\p18cxxx.inc
                                                INCLUDE <p18F2423.INC>                                                      C:\MCC18\MPASM\p18cxxx.inc
                                             ENDIF                                                                          C:\MCC18\MPASM\p18cxxx.inc
                                             IFDEF __18F2431                                                                C:\MCC18\MPASM\p18cxxx.inc
                                                INCLUDE <p18F2431.INC>                                                      C:\MCC18\MPASM\p18cxxx.inc
                                             ENDIF                                                                          C:\MCC18\MPASM\p18cxxx.inc
                                             IFDEF __18F2439                                                                C:\MCC18\MPASM\p18cxxx.inc
                                                INCLUDE <p18F2439.INC>                                                      C:\MCC18\MPASM\p18cxxx.inc
                                             ENDIF                                                                          C:\MCC18\MPASM\p18cxxx.inc
                                             IFDEF __18F2450                                                                C:\MCC18\MPASM\p18cxxx.inc
                                                INCLUDE <p18F2450.INC>                                                      C:\MCC18\MPASM\p18cxxx.inc
                                             ENDIF                                                                          C:\MCC18\MPASM\p18cxxx.inc
                                             IFDEF __18F2455                                                                C:\MCC18\MPASM\p18cxxx.inc
                                                INCLUDE <p18F2455.INC>                                                      C:\MCC18\MPASM\p18cxxx.inc
                                             ENDIF                                                                          C:\MCC18\MPASM\p18cxxx.inc
                                             IFDEF __18F2458                                                                C:\MCC18\MPASM\p18cxxx.inc
                                                INCLUDE <p18F2458.INC>                                                      C:\MCC18\MPASM\p18cxxx.inc
                                             ENDIF                                                                          C:\MCC18\MPASM\p18cxxx.inc
                                             IFDEF __18F248                                                                 C:\MCC18\MPASM\p18cxxx.inc
                                                INCLUDE <p18F248.INC>                                                       C:\MCC18\MPASM\p18cxxx.inc
                                             ENDIF                                                                          C:\MCC18\MPASM\p18cxxx.inc
                                             IFDEF __18F2480                                                                C:\MCC18\MPASM\p18cxxx.inc
                                                INCLUDE <p18F2480.INC>                                                      C:\MCC18\MPASM\p18cxxx.inc
                                             ENDIF                                                                          C:\MCC18\MPASM\p18cxxx.inc
                                             IFDEF __18F24J10                                                               C:\MCC18\MPASM\p18cxxx.inc
                                                INCLUDE <p18F24J10.INC>                                                     C:\MCC18\MPASM\p18cxxx.inc
                                             ENDIF                                                                          C:\MCC18\MPASM\p18cxxx.inc
                                             IFDEF __18F24K20                                                               C:\MCC18\MPASM\p18cxxx.inc
                                                INCLUDE <p18F24K20.INC>                                                     C:\MCC18\MPASM\p18cxxx.inc
                                             ENDIF                                                                          C:\MCC18\MPASM\p18cxxx.inc
                                             IFDEF __18F2510                                                                C:\MCC18\MPASM\p18cxxx.inc
                                                INCLUDE <p18F2510.INC>                                                      C:\MCC18\MPASM\p18cxxx.inc
                                             ENDIF                                                                          C:\MCC18\MPASM\p18cxxx.inc
                                             IFDEF __18F2515                                                                C:\MCC18\MPASM\p18cxxx.inc
                                                INCLUDE <p18F2515.INC>                                                      C:\MCC18\MPASM\p18cxxx.inc
                                             ENDIF                                                                          C:\MCC18\MPASM\p18cxxx.inc
                                             IFDEF __18F252                                                                 C:\MCC18\MPASM\p18cxxx.inc
                                                INCLUDE <p18F252.INC>                                                       C:\MCC18\MPASM\p18cxxx.inc
                                             ENDIF                                                                          C:\MCC18\MPASM\p18cxxx.inc
                                             IFDEF __18F2520                                                                C:\MCC18\MPASM\p18cxxx.inc
                                                INCLUDE <p18F2520.INC>                                                      C:\MCC18\MPASM\p18cxxx.inc
                                             ENDIF                                                                          C:\MCC18\MPASM\p18cxxx.inc
                                             IFDEF __18F2523                                                                C:\MCC18\MPASM\p18cxxx.inc
                                                INCLUDE <p18F2523.INC>                                                      C:\MCC18\MPASM\p18cxxx.inc
                                             ENDIF                                                                          C:\MCC18\MPASM\p18cxxx.inc
                                             IFDEF __18F2525                                                                C:\MCC18\MPASM\p18cxxx.inc
                                                INCLUDE <p18F2525.INC>                                                      C:\MCC18\MPASM\p18cxxx.inc
                                             ENDIF                                                                          C:\MCC18\MPASM\p18cxxx.inc
                                             IFDEF __18F2539                                                                C:\MCC18\MPASM\p18cxxx.inc
                                                INCLUDE <p18F2539.INC>                                                      C:\MCC18\MPASM\p18cxxx.inc
                                             ENDIF                                                                          C:\MCC18\MPASM\p18cxxx.inc
                                             IFDEF __18F2550                                                                C:\MCC18\MPASM\p18cxxx.inc
                                                INCLUDE <p18F2550.INC>                                                      C:\MCC18\MPASM\p18cxxx.inc
                                             ENDIF                                                                          C:\MCC18\MPASM\p18cxxx.inc
                                             IFDEF __18F2553                                                                C:\MCC18\MPASM\p18cxxx.inc
                                                INCLUDE <p18F2553.INC>                                                      C:\MCC18\MPASM\p18cxxx.inc
                                             ENDIF                                                                          C:\MCC18\MPASM\p18cxxx.inc
                                             IFDEF __18F258                                                                 C:\MCC18\MPASM\p18cxxx.inc
                                                INCLUDE <p18F258.INC>                                                       C:\MCC18\MPASM\p18cxxx.inc
                                             ENDIF                                                                          C:\MCC18\MPASM\p18cxxx.inc
                                             IFDEF __18F2580                                                                C:\MCC18\MPASM\p18cxxx.inc
                                                INCLUDE <p18F2580.INC>                                                      C:\MCC18\MPASM\p18cxxx.inc
                                             ENDIF                                                                          C:\MCC18\MPASM\p18cxxx.inc
                                             IFDEF __18F2585                                                                C:\MCC18\MPASM\p18cxxx.inc
                                                INCLUDE <p18F2585.INC>                                                      C:\MCC18\MPASM\p18cxxx.inc
                                             ENDIF                                                                          C:\MCC18\MPASM\p18cxxx.inc
                                             IFDEF __18F25J10                                                               C:\MCC18\MPASM\p18cxxx.inc
                                                INCLUDE <p18F25J10.INC>                                                     C:\MCC18\MPASM\p18cxxx.inc
                                             ENDIF                                                                          C:\MCC18\MPASM\p18cxxx.inc
                                             IFDEF __18F25K20                                                               C:\MCC18\MPASM\p18cxxx.inc
                                                INCLUDE <p18F25K20.INC>                                                     C:\MCC18\MPASM\p18cxxx.inc
                                             ENDIF                                                                          C:\MCC18\MPASM\p18cxxx.inc
                                             IFDEF __18F2610                                                                C:\MCC18\MPASM\p18cxxx.inc
                                                INCLUDE <p18F2610.INC>                                                      C:\MCC18\MPASM\p18cxxx.inc
                                             ENDIF                                                                          C:\MCC18\MPASM\p18cxxx.inc
                                             IFDEF __18F2620                                                                C:\MCC18\MPASM\p18cxxx.inc
                                                INCLUDE <p18F2620.INC>                                                      C:\MCC18\MPASM\p18cxxx.inc
                                             ENDIF                                                                          C:\MCC18\MPASM\p18cxxx.inc
                                             IFDEF __18F2680                                                                C:\MCC18\MPASM\p18cxxx.inc
                                                INCLUDE <p18F2680.INC>                                                      C:\MCC18\MPASM\p18cxxx.inc
                                             ENDIF                                                                          C:\MCC18\MPASM\p18cxxx.inc
                                             IFDEF __18F2682                                                                C:\MCC18\MPASM\p18cxxx.inc
                                                INCLUDE <p18F2682.INC>                                                      C:\MCC18\MPASM\p18cxxx.inc
                                             ENDIF                                                                          C:\MCC18\MPASM\p18cxxx.inc
                                             IFDEF __18F2685                                                                C:\MCC18\MPASM\p18cxxx.inc
                                                INCLUDE <p18F2685.INC>                                                      C:\MCC18\MPASM\p18cxxx.inc
                                             ENDIF                                                                          C:\MCC18\MPASM\p18cxxx.inc
                                             IFDEF __18F26K20                                                               C:\MCC18\MPASM\p18cxxx.inc
                                                INCLUDE <p18F26K20.INC>                                                     C:\MCC18\MPASM\p18cxxx.inc
                                             ENDIF                                                                          C:\MCC18\MPASM\p18cxxx.inc
                                             IFDEF __18F4220                                                                C:\MCC18\MPASM\p18cxxx.inc
                                                INCLUDE <p18F4220.INC>                                                      C:\MCC18\MPASM\p18cxxx.inc
                                             ENDIF                                                                          C:\MCC18\MPASM\p18cxxx.inc
                                             IFDEF __18F4221                                                                C:\MCC18\MPASM\p18cxxx.inc
                                                INCLUDE <p18F4221.INC>                                                      C:\MCC18\MPASM\p18cxxx.inc
                                             ENDIF                                                                          C:\MCC18\MPASM\p18cxxx.inc
                                             IFDEF __18F4320                                                                C:\MCC18\MPASM\p18cxxx.inc
                                                INCLUDE <p18F4320.INC>                                                      C:\MCC18\MPASM\p18cxxx.inc
                                             ENDIF                                                                          C:\MCC18\MPASM\p18cxxx.inc
                                             IFDEF __18F4321                                                                C:\MCC18\MPASM\p18cxxx.inc
                                                INCLUDE <p18F4321.INC>                                                      C:\MCC18\MPASM\p18cxxx.inc
                                             ENDIF                                                                          C:\MCC18\MPASM\p18cxxx.inc
                                             IFDEF __18F4331                                                                C:\MCC18\MPASM\p18cxxx.inc
                                                INCLUDE <p18F4331.INC>                                                      C:\MCC18\MPASM\p18cxxx.inc
                                             ENDIF                                                                          C:\MCC18\MPASM\p18cxxx.inc
                                             IFDEF __18F4410                                                                C:\MCC18\MPASM\p18cxxx.inc
                                                INCLUDE <p18F4410.INC>                                                      C:\MCC18\MPASM\p18cxxx.inc
                                             ENDIF                                                                          C:\MCC18\MPASM\p18cxxx.inc
                                             IFDEF __18F442                                                                 C:\MCC18\MPASM\p18cxxx.inc
                                                INCLUDE <p18F442.INC>                                                       C:\MCC18\MPASM\p18cxxx.inc
                                             ENDIF                                                                          C:\MCC18\MPASM\p18cxxx.inc
                                             IFDEF __18F4420                                                                C:\MCC18\MPASM\p18cxxx.inc
                                                INCLUDE <p18F4420.INC>                                                      C:\MCC18\MPASM\p18cxxx.inc
                                             ENDIF                                                                          C:\MCC18\MPASM\p18cxxx.inc
                                             IFDEF __18F4423                                                                C:\MCC18\MPASM\p18cxxx.inc
                                                INCLUDE <p18F4423.INC>                                                      C:\MCC18\MPASM\p18cxxx.inc
                                             ENDIF                                                                          C:\MCC18\MPASM\p18cxxx.inc
                                             IFDEF __18F4431                                                                C:\MCC18\MPASM\p18cxxx.inc
                                                INCLUDE <p18F4431.INC>                                                      C:\MCC18\MPASM\p18cxxx.inc
                                             ENDIF                                                                          C:\MCC18\MPASM\p18cxxx.inc
                                             IFDEF __18F4439                                                                C:\MCC18\MPASM\p18cxxx.inc
                                                INCLUDE <p18F4439.INC>                                                      C:\MCC18\MPASM\p18cxxx.inc
                                             ENDIF                                                                          C:\MCC18\MPASM\p18cxxx.inc
                                             IFDEF __18F4450                                                                C:\MCC18\MPASM\p18cxxx.inc
                                                INCLUDE <p18F4450.INC>                                                      C:\MCC18\MPASM\p18cxxx.inc
                                             ENDIF                                                                          C:\MCC18\MPASM\p18cxxx.inc
                                             IFDEF __18F4455                                                                C:\MCC18\MPASM\p18cxxx.inc
                                                INCLUDE <p18F4455.INC>                                                      C:\MCC18\MPASM\p18cxxx.inc
                                             ENDIF                                                                          C:\MCC18\MPASM\p18cxxx.inc
                                             IFDEF __18F4458                                                                C:\MCC18\MPASM\p18cxxx.inc
                                                INCLUDE <p18F4458.INC>                                                      C:\MCC18\MPASM\p18cxxx.inc
                                             ENDIF                                                                          C:\MCC18\MPASM\p18cxxx.inc
                                             IFDEF __18F448                                                                 C:\MCC18\MPASM\p18cxxx.inc
                                                INCLUDE <p18F448.INC>                                                       C:\MCC18\MPASM\p18cxxx.inc
                                             ENDIF                                                                          C:\MCC18\MPASM\p18cxxx.inc
                                             IFDEF __18F4480                                                                C:\MCC18\MPASM\p18cxxx.inc
                                                INCLUDE <p18F4480.INC>                                                      C:\MCC18\MPASM\p18cxxx.inc
                                             ENDIF                                                                          C:\MCC18\MPASM\p18cxxx.inc
                                             IFDEF __18F44J10                                                               C:\MCC18\MPASM\p18cxxx.inc
                                                INCLUDE <p18F44J10.INC>                                                     C:\MCC18\MPASM\p18cxxx.inc
                                             ENDIF                                                                          C:\MCC18\MPASM\p18cxxx.inc
                                             IFDEF __18F44K20                                                               C:\MCC18\MPASM\p18cxxx.inc
                                                INCLUDE <p18F44K20.INC>                                                     C:\MCC18\MPASM\p18cxxx.inc
                                             ENDIF                                                                          C:\MCC18\MPASM\p18cxxx.inc
                                             IFDEF __18F4510                                                                C:\MCC18\MPASM\p18cxxx.inc
                                                INCLUDE <p18F4510.INC>                                                      C:\MCC18\MPASM\p18cxxx.inc
                                             ENDIF                                                                          C:\MCC18\MPASM\p18cxxx.inc
                                             IFDEF __18F4515                                                                C:\MCC18\MPASM\p18cxxx.inc
                                                INCLUDE <p18F4515.INC>                                                      C:\MCC18\MPASM\p18cxxx.inc
                                             ENDIF                                                                          C:\MCC18\MPASM\p18cxxx.inc
                                             IFDEF __18F452                                                                 C:\MCC18\MPASM\p18cxxx.inc
                                                INCLUDE <p18F452.INC>                                                       C:\MCC18\MPASM\p18cxxx.inc
                                             ENDIF                                                                          C:\MCC18\MPASM\p18cxxx.inc
                                             IFDEF __18F4520                                                                C:\MCC18\MPASM\p18cxxx.inc
                                                INCLUDE <p18F4520.INC>                                                      C:\MCC18\MPASM\p18cxxx.inc
                                             ENDIF                                                                          C:\MCC18\MPASM\p18cxxx.inc
                                             IFDEF __18F4523                                                                C:\MCC18\MPASM\p18cxxx.inc
                                                INCLUDE <p18F4523.INC>                                                      C:\MCC18\MPASM\p18cxxx.inc
                                             ENDIF                                                                          C:\MCC18\MPASM\p18cxxx.inc
                                             IFDEF __18F4525                                                                C:\MCC18\MPASM\p18cxxx.inc
                                                INCLUDE <p18F4525.INC>                                                      C:\MCC18\MPASM\p18cxxx.inc
                                             ENDIF                                                                          C:\MCC18\MPASM\p18cxxx.inc
                                             IFDEF __18F4539                                                                C:\MCC18\MPASM\p18cxxx.inc
                                                INCLUDE <p18F4539.INC>                                                      C:\MCC18\MPASM\p18cxxx.inc
                                             ENDIF                                                                          C:\MCC18\MPASM\p18cxxx.inc
                                             IFDEF __18F4550                                                                C:\MCC18\MPASM\p18cxxx.inc
                                                INCLUDE <p18F4550.INC>                                                      C:\MCC18\MPASM\p18cxxx.inc
                                             ENDIF                                                                          C:\MCC18\MPASM\p18cxxx.inc
                                             IFDEF __18F4553                                                                C:\MCC18\MPASM\p18cxxx.inc
                                                INCLUDE <p18F4553.INC>                                                      C:\MCC18\MPASM\p18cxxx.inc
                                             ENDIF                                                                          C:\MCC18\MPASM\p18cxxx.inc
                                             IFDEF __18F458                                                                 C:\MCC18\MPASM\p18cxxx.inc
                                                INCLUDE <p18F458.INC>                                                       C:\MCC18\MPASM\p18cxxx.inc
                                             ENDIF                                                                          C:\MCC18\MPASM\p18cxxx.inc
                                             IFDEF __18F4580                                                                C:\MCC18\MPASM\p18cxxx.inc
                                                INCLUDE <p18F4580.INC>                                                      C:\MCC18\MPASM\p18cxxx.inc
                                             ENDIF                                                                          C:\MCC18\MPASM\p18cxxx.inc
                                             IFDEF __18F4585                                                                C:\MCC18\MPASM\p18cxxx.inc
                                                INCLUDE <p18F4585.INC>                                                      C:\MCC18\MPASM\p18cxxx.inc
                                             ENDIF                                                                          C:\MCC18\MPASM\p18cxxx.inc
                                             IFDEF __18F45J10                                                               C:\MCC18\MPASM\p18cxxx.inc
                                                INCLUDE <p18F45J10.INC>                                                     C:\MCC18\MPASM\p18cxxx.inc
                                             ENDIF                                                                          C:\MCC18\MPASM\p18cxxx.inc
                                             IFDEF __18F45K20                                                               C:\MCC18\MPASM\p18cxxx.inc
                                                INCLUDE <p18F45K20.INC>                                                     C:\MCC18\MPASM\p18cxxx.inc
                                             ENDIF                                                                          C:\MCC18\MPASM\p18cxxx.inc
                                             IFDEF __18F4610                                                                C:\MCC18\MPASM\p18cxxx.inc
                                                INCLUDE <p18F4610.INC>                                                      C:\MCC18\MPASM\p18cxxx.inc
                                             ENDIF                                                                          C:\MCC18\MPASM\p18cxxx.inc
                                             IFDEF __18F4620                                                                C:\MCC18\MPASM\p18cxxx.inc
                                                INCLUDE <p18F4620.INC>                                                      C:\MCC18\MPASM\p18cxxx.inc
                                             ENDIF                                                                          C:\MCC18\MPASM\p18cxxx.inc
                                             IFDEF __18F4680                                                                C:\MCC18\MPASM\p18cxxx.inc
                                                INCLUDE <p18F4680.INC>                                                      C:\MCC18\MPASM\p18cxxx.inc
                                             ENDIF                                                                          C:\MCC18\MPASM\p18cxxx.inc
                                             IFDEF __18F4682                                                                C:\MCC18\MPASM\p18cxxx.inc
                                                INCLUDE <p18F4682.INC>                                                      C:\MCC18\MPASM\p18cxxx.inc
                                             ENDIF                                                                          C:\MCC18\MPASM\p18cxxx.inc
                                             IFDEF __18F4685                                                                C:\MCC18\MPASM\p18cxxx.inc
                                                INCLUDE <p18F4685.INC>                                                      C:\MCC18\MPASM\p18cxxx.inc
                                             ENDIF                                                                          C:\MCC18\MPASM\p18cxxx.inc
                                             IFDEF __18F46K20                                                               C:\MCC18\MPASM\p18cxxx.inc
                                                INCLUDE <p18F46K20.INC>                                                     C:\MCC18\MPASM\p18cxxx.inc
                                             ENDIF                                                                          C:\MCC18\MPASM\p18cxxx.inc
                                             IFDEF __18F6310                                                                C:\MCC18\MPASM\p18cxxx.inc
                                                INCLUDE <p18F6310.INC>                                                      C:\MCC18\MPASM\p18cxxx.inc
                                             ENDIF                                                                          C:\MCC18\MPASM\p18cxxx.inc
                                             IFDEF __18F6390                                                                C:\MCC18\MPASM\p18cxxx.inc
                                                INCLUDE <p18F6390.INC>                                                      C:\MCC18\MPASM\p18cxxx.inc
                                             ENDIF                                                                          C:\MCC18\MPASM\p18cxxx.inc
                                             IFDEF __18F63J11                                                               C:\MCC18\MPASM\p18cxxx.inc
                                                INCLUDE <p18F63J11.INC>                                                     C:\MCC18\MPASM\p18cxxx.inc
                                             ENDIF                                                                          C:\MCC18\MPASM\p18cxxx.inc
                                             IFDEF __18F63J90                                                               C:\MCC18\MPASM\p18cxxx.inc
                                                INCLUDE <p18F63J90.INC>                                                     C:\MCC18\MPASM\p18cxxx.inc
                                             ENDIF                                                                          C:\MCC18\MPASM\p18cxxx.inc
                                             IFDEF __18F6410                                                                C:\MCC18\MPASM\p18cxxx.inc
                                                INCLUDE <p18F6410.INC>                                                      C:\MCC18\MPASM\p18cxxx.inc
                                             ENDIF                                                                          C:\MCC18\MPASM\p18cxxx.inc
                                             IFDEF __18F6490                                                                C:\MCC18\MPASM\p18cxxx.inc
                                                INCLUDE <p18F6490.INC>                                                      C:\MCC18\MPASM\p18cxxx.inc
                                             ENDIF                                                                          C:\MCC18\MPASM\p18cxxx.inc
                                             IFDEF __18F64J11                                                               C:\MCC18\MPASM\p18cxxx.inc
                                                INCLUDE <p18F64J11.INC>                                                     C:\MCC18\MPASM\p18cxxx.inc
                                             ENDIF                                                                          C:\MCC18\MPASM\p18cxxx.inc
                                             IFDEF __18F64J90                                                               C:\MCC18\MPASM\p18cxxx.inc
                                                INCLUDE <p18F64J90.INC>                                                     C:\MCC18\MPASM\p18cxxx.inc
                                             ENDIF                                                                          C:\MCC18\MPASM\p18cxxx.inc
                                             IFDEF __18F6520                                                                C:\MCC18\MPASM\p18cxxx.inc
                                                INCLUDE <p18F6520.INC>                                                      C:\MCC18\MPASM\p18cxxx.inc
                                             ENDIF                                                                          C:\MCC18\MPASM\p18cxxx.inc
                                             IFDEF __18F6525                                                                C:\MCC18\MPASM\p18cxxx.inc
                                                INCLUDE <p18F6525.INC>                                                      C:\MCC18\MPASM\p18cxxx.inc
                                             ENDIF                                                                          C:\MCC18\MPASM\p18cxxx.inc
                                             IFDEF __18F6527                                                                C:\MCC18\MPASM\p18cxxx.inc
                                                INCLUDE <p18F6527.INC>                                                      C:\MCC18\MPASM\p18cxxx.inc
                                             ENDIF                                                                          C:\MCC18\MPASM\p18cxxx.inc
                                             IFDEF __18F6585                                                                C:\MCC18\MPASM\p18cxxx.inc
                                                INCLUDE <p18F6585.INC>                                                      C:\MCC18\MPASM\p18cxxx.inc
                                             ENDIF                                                                          C:\MCC18\MPASM\p18cxxx.inc
                                             IFDEF __18F65J10                                                               C:\MCC18\MPASM\p18cxxx.inc
                                                INCLUDE <p18F65J10.INC>                                                     C:\MCC18\MPASM\p18cxxx.inc
                                             ENDIF                                                                          C:\MCC18\MPASM\p18cxxx.inc
                                             IFDEF __18F65J11                                                               C:\MCC18\MPASM\p18cxxx.inc
                                                INCLUDE <p18F65J11.INC>                                                     C:\MCC18\MPASM\p18cxxx.inc
                                             ENDIF                                                                          C:\MCC18\MPASM\p18cxxx.inc
                                             IFDEF __18F65J15                                                               C:\MCC18\MPASM\p18cxxx.inc
                                                INCLUDE <p18F65J15.INC>                                                     C:\MCC18\MPASM\p18cxxx.inc
                                             ENDIF                                                                          C:\MCC18\MPASM\p18cxxx.inc
                                             IFDEF __18F65J50                                                               C:\MCC18\MPASM\p18cxxx.inc
                                                INCLUDE <p18F65J50.INC>                                                     C:\MCC18\MPASM\p18cxxx.inc
                                             ENDIF                                                                          C:\MCC18\MPASM\p18cxxx.inc
                                             IFDEF __18F65J90                                                               C:\MCC18\MPASM\p18cxxx.inc
                                                INCLUDE <p18F65J90.INC>                                                     C:\MCC18\MPASM\p18cxxx.inc
                                             ENDIF                                                                          C:\MCC18\MPASM\p18cxxx.inc
                                             IFDEF __18F6620                                                                C:\MCC18\MPASM\p18cxxx.inc
                                                INCLUDE <p18F6620.INC>                                                      C:\MCC18\MPASM\p18cxxx.inc
                                             ENDIF                                                                          C:\MCC18\MPASM\p18cxxx.inc
                                             IFDEF __18F6621                                                                C:\MCC18\MPASM\p18cxxx.inc
                                                INCLUDE <p18F6621.INC>                                                      C:\MCC18\MPASM\p18cxxx.inc
                                             ENDIF                                                                          C:\MCC18\MPASM\p18cxxx.inc
                                             IFDEF __18F6622                                                                C:\MCC18\MPASM\p18cxxx.inc
                                                INCLUDE <p18F6622.INC>                                                      C:\MCC18\MPASM\p18cxxx.inc
                                             ENDIF                                                                          C:\MCC18\MPASM\p18cxxx.inc
                                             IFDEF __18F6627                                                                C:\MCC18\MPASM\p18cxxx.inc
                                                INCLUDE <p18F6627.INC>                                                      C:\MCC18\MPASM\p18cxxx.inc
                                             ENDIF                                                                          C:\MCC18\MPASM\p18cxxx.inc
                                             IFDEF __18F6628                                                                C:\MCC18\MPASM\p18cxxx.inc
                                                INCLUDE <p18F6628.INC>                                                      C:\MCC18\MPASM\p18cxxx.inc
                                             ENDIF                                                                          C:\MCC18\MPASM\p18cxxx.inc
                                             IFDEF __18F6680                                                                C:\MCC18\MPASM\p18cxxx.inc
                                                INCLUDE <p18F6680.INC>                                                      C:\MCC18\MPASM\p18cxxx.inc
                                             ENDIF                                                                          C:\MCC18\MPASM\p18cxxx.inc
                                             IFDEF __18F66J10                                                               C:\MCC18\MPASM\p18cxxx.inc
                                                INCLUDE <p18F66J10.INC>                                                     C:\MCC18\MPASM\p18cxxx.inc
                                             ENDIF                                                                          C:\MCC18\MPASM\p18cxxx.inc
                                             IFDEF __18F66J11                                                               C:\MCC18\MPASM\p18cxxx.inc
                                                INCLUDE <p18F66J11.INC>                                                     C:\MCC18\MPASM\p18cxxx.inc
                                             ENDIF                                                                          C:\MCC18\MPASM\p18cxxx.inc
                                             IFDEF __18F66J15                                                               C:\MCC18\MPASM\p18cxxx.inc
                                                INCLUDE <p18F66J15.INC>                                                     C:\MCC18\MPASM\p18cxxx.inc
                                             ENDIF                                                                          C:\MCC18\MPASM\p18cxxx.inc
                                             IFDEF __18F66J16                                                               C:\MCC18\MPASM\p18cxxx.inc
                                                INCLUDE <p18F66J16.INC>                                                     C:\MCC18\MPASM\p18cxxx.inc
                                             ENDIF                                                                          C:\MCC18\MPASM\p18cxxx.inc
                                             IFDEF __18F66J50                                                               C:\MCC18\MPASM\p18cxxx.inc
                                                INCLUDE <p18F66J50.INC>                                                     C:\MCC18\MPASM\p18cxxx.inc
                                             ENDIF                                                                          C:\MCC18\MPASM\p18cxxx.inc
                                             IFDEF __18F66J55                                                               C:\MCC18\MPASM\p18cxxx.inc
                                                INCLUDE <p18F66J55.INC>                                                     C:\MCC18\MPASM\p18cxxx.inc
                                             ENDIF                                                                          C:\MCC18\MPASM\p18cxxx.inc
                                             IFDEF __18F66J60                                                               C:\MCC18\MPASM\p18cxxx.inc
                                                INCLUDE <p18F66J60.INC>                                                     C:\MCC18\MPASM\p18cxxx.inc
                                             ENDIF                                                                          C:\MCC18\MPASM\p18cxxx.inc
                                             IFDEF __18F66J65                                                               C:\MCC18\MPASM\p18cxxx.inc
                                                INCLUDE <p18F66J65.INC>                                                     C:\MCC18\MPASM\p18cxxx.inc
                                             ENDIF                                                                          C:\MCC18\MPASM\p18cxxx.inc
                                             IFDEF __18F6720                                                                C:\MCC18\MPASM\p18cxxx.inc
                                                INCLUDE <p18F6720.INC>                                                      C:\MCC18\MPASM\p18cxxx.inc
                                             ENDIF                                                                          C:\MCC18\MPASM\p18cxxx.inc
                                             IFDEF __18F6722                                                                C:\MCC18\MPASM\p18cxxx.inc
                                                INCLUDE <p18F6722.INC>                                                      C:\MCC18\MPASM\p18cxxx.inc
                                             ENDIF                                                                          C:\MCC18\MPASM\p18cxxx.inc
                                             IFDEF __18F6723                                                                C:\MCC18\MPASM\p18cxxx.inc
                                                INCLUDE <p18F6723.INC>                                                      C:\MCC18\MPASM\p18cxxx.inc
                                             ENDIF                                                                          C:\MCC18\MPASM\p18cxxx.inc
                                             IFDEF __18F67J10                                                               C:\MCC18\MPASM\p18cxxx.inc
                                                INCLUDE <p18F67J10.INC>                                                     C:\MCC18\MPASM\p18cxxx.inc
                                             ENDIF                                                                          C:\MCC18\MPASM\p18cxxx.inc
                                             IFDEF __18F67J11                                                               C:\MCC18\MPASM\p18cxxx.inc
                                                INCLUDE <p18F67J11.INC>                                                     C:\MCC18\MPASM\p18cxxx.inc
                                             ENDIF                                                                          C:\MCC18\MPASM\p18cxxx.inc
                                             IFDEF __18F67J50                                                               C:\MCC18\MPASM\p18cxxx.inc
                                                INCLUDE <p18F67J50.INC>                                                     C:\MCC18\MPASM\p18cxxx.inc
                                             ENDIF                                                                          C:\MCC18\MPASM\p18cxxx.inc
                                             IFDEF __18F67J60                                                               C:\MCC18\MPASM\p18cxxx.inc
                                                INCLUDE <p18F67J60.INC>                                                     C:\MCC18\MPASM\p18cxxx.inc
                                             ENDIF                                                                          C:\MCC18\MPASM\p18cxxx.inc
                                             IFDEF __18F8310                                                                C:\MCC18\MPASM\p18cxxx.inc
                                                INCLUDE <p18F8310.INC>                                                      C:\MCC18\MPASM\p18cxxx.inc
                                             ENDIF                                                                          C:\MCC18\MPASM\p18cxxx.inc
                                             IFDEF __18F8390                                                                C:\MCC18\MPASM\p18cxxx.inc
                                                INCLUDE <p18F8390.INC>                                                      C:\MCC18\MPASM\p18cxxx.inc
                                             ENDIF                                                                          C:\MCC18\MPASM\p18cxxx.inc
                                             IFDEF __18F83J11                                                               C:\MCC18\MPASM\p18cxxx.inc
                                                INCLUDE <p18F83J11.INC>                                                     C:\MCC18\MPASM\p18cxxx.inc
                                             ENDIF                                                                          C:\MCC18\MPASM\p18cxxx.inc
                                             IFDEF __18F83J90                                                               C:\MCC18\MPASM\p18cxxx.inc
                                                INCLUDE <p18F83J90.INC>                                                     C:\MCC18\MPASM\p18cxxx.inc
                                             ENDIF                                                                          C:\MCC18\MPASM\p18cxxx.inc
                                             IFDEF __18F8410                                                                C:\MCC18\MPASM\p18cxxx.inc
                                                INCLUDE <p18F8410.INC>                                                      C:\MCC18\MPASM\p18cxxx.inc
                                             ENDIF                                                                          C:\MCC18\MPASM\p18cxxx.inc
                                             IFDEF __18F8490                                                                C:\MCC18\MPASM\p18cxxx.inc
                                                INCLUDE <p18F8490.INC>                                                      C:\MCC18\MPASM\p18cxxx.inc
                                             ENDIF                                                                          C:\MCC18\MPASM\p18cxxx.inc
                                             IFDEF __18F84J11                                                               C:\MCC18\MPASM\p18cxxx.inc
                                                INCLUDE <p18F84J11.INC>                                                     C:\MCC18\MPASM\p18cxxx.inc
                                             ENDIF                                                                          C:\MCC18\MPASM\p18cxxx.inc
                                             IFDEF __18F84J90                                                               C:\MCC18\MPASM\p18cxxx.inc
                                                INCLUDE <p18F84J90.INC>                                                     C:\MCC18\MPASM\p18cxxx.inc
                                             ENDIF                                                                          C:\MCC18\MPASM\p18cxxx.inc
                                             IFDEF __18F8520                                                                C:\MCC18\MPASM\p18cxxx.inc
                                                INCLUDE <p18F8520.INC>                                                      C:\MCC18\MPASM\p18cxxx.inc
                                             ENDIF                                                                          C:\MCC18\MPASM\p18cxxx.inc
                                             IFDEF __18F8525                                                                C:\MCC18\MPASM\p18cxxx.inc
                                                INCLUDE <p18F8525.INC>                                                      C:\MCC18\MPASM\p18cxxx.inc
                                             ENDIF                                                                          C:\MCC18\MPASM\p18cxxx.inc
                                             IFDEF __18F8527                                                                C:\MCC18\MPASM\p18cxxx.inc
                                                INCLUDE <p18F8527.INC>                                                      C:\MCC18\MPASM\p18cxxx.inc
                                             ENDIF                                                                          C:\MCC18\MPASM\p18cxxx.inc
                                             IFDEF __18F8585                                                                C:\MCC18\MPASM\p18cxxx.inc
                                                INCLUDE <p18F8585.INC>                                                      C:\MCC18\MPASM\p18cxxx.inc
                                             ENDIF                                                                          C:\MCC18\MPASM\p18cxxx.inc
                                             IFDEF __18F85J10                                                               C:\MCC18\MPASM\p18cxxx.inc
                                                INCLUDE <p18F85J10.INC>                                                     C:\MCC18\MPASM\p18cxxx.inc
                                             ENDIF                                                                          C:\MCC18\MPASM\p18cxxx.inc
                                             IFDEF __18F85J11                                                               C:\MCC18\MPASM\p18cxxx.inc
                                                INCLUDE <p18F85J11.INC>                                                     C:\MCC18\MPASM\p18cxxx.inc
                                             ENDIF                                                                          C:\MCC18\MPASM\p18cxxx.inc
                                             IFDEF __18F85J15                                                               C:\MCC18\MPASM\p18cxxx.inc
                                                INCLUDE <p18F85J15.INC>                                                     C:\MCC18\MPASM\p18cxxx.inc
                                             ENDIF                                                                          C:\MCC18\MPASM\p18cxxx.inc
                                             IFDEF __18F85J50                                                               C:\MCC18\MPASM\p18cxxx.inc
                                                INCLUDE <p18F85J50.INC>                                                     C:\MCC18\MPASM\p18cxxx.inc
                                             ENDIF                                                                          C:\MCC18\MPASM\p18cxxx.inc
                                             IFDEF __18F85J90                                                               C:\MCC18\MPASM\p18cxxx.inc
                                                INCLUDE <p18F85J90.INC>                                                     C:\MCC18\MPASM\p18cxxx.inc
                                             ENDIF                                                                          C:\MCC18\MPASM\p18cxxx.inc
                                             IFDEF __18F8620                                                                C:\MCC18\MPASM\p18cxxx.inc
                                                INCLUDE <p18F8620.INC>                                                      C:\MCC18\MPASM\p18cxxx.inc
                                             ENDIF                                                                          C:\MCC18\MPASM\p18cxxx.inc
                                             IFDEF __18F8621                                                                C:\MCC18\MPASM\p18cxxx.inc
                                                INCLUDE <p18F8621.INC>                                                      C:\MCC18\MPASM\p18cxxx.inc
                                             ENDIF                                                                          C:\MCC18\MPASM\p18cxxx.inc
                                             IFDEF __18F8622                                                                C:\MCC18\MPASM\p18cxxx.inc
                                                INCLUDE <p18F8622.INC>                                                      C:\MCC18\MPASM\p18cxxx.inc
                                             ENDIF                                                                          C:\MCC18\MPASM\p18cxxx.inc
                                             IFDEF __18F8627                                                                C:\MCC18\MPASM\p18cxxx.inc
                                                INCLUDE <p18F8627.INC>                                                      C:\MCC18\MPASM\p18cxxx.inc
                                             ENDIF                                                                          C:\MCC18\MPASM\p18cxxx.inc
                                             IFDEF __18F8628                                                                C:\MCC18\MPASM\p18cxxx.inc
                                                INCLUDE <p18F8628.INC>                                                      C:\MCC18\MPASM\p18cxxx.inc
                                             ENDIF                                                                          C:\MCC18\MPASM\p18cxxx.inc
                                             IFDEF __18F8680                                                                C:\MCC18\MPASM\p18cxxx.inc
                                                INCLUDE <p18F8680.INC>                                                      C:\MCC18\MPASM\p18cxxx.inc
                                             ENDIF                                                                          C:\MCC18\MPASM\p18cxxx.inc
                                             IFDEF __18F86J10                                                               C:\MCC18\MPASM\p18cxxx.inc
                                                INCLUDE <p18F86J10.INC>                                                     C:\MCC18\MPASM\p18cxxx.inc
                                             ENDIF                                                                          C:\MCC18\MPASM\p18cxxx.inc
                                             IFDEF __18F86J11                                                               C:\MCC18\MPASM\p18cxxx.inc
                                                INCLUDE <p18F86J11.INC>                                                     C:\MCC18\MPASM\p18cxxx.inc
                                             ENDIF                                                                          C:\MCC18\MPASM\p18cxxx.inc
                                             IFDEF __18F86J15                                                               C:\MCC18\MPASM\p18cxxx.inc
                                                INCLUDE <p18F86J15.INC>                                                     C:\MCC18\MPASM\p18cxxx.inc
                                             ENDIF                                                                          C:\MCC18\MPASM\p18cxxx.inc
                                             IFDEF __18F86J16                                                               C:\MCC18\MPASM\p18cxxx.inc
                                                INCLUDE <p18F86J16.INC>                                                     C:\MCC18\MPASM\p18cxxx.inc
                                             ENDIF                                                                          C:\MCC18\MPASM\p18cxxx.inc
                                             IFDEF __18F86J50                                                               C:\MCC18\MPASM\p18cxxx.inc
                                                INCLUDE <p18F86J50.INC>                                                     C:\MCC18\MPASM\p18cxxx.inc
                                             ENDIF                                                                          C:\MCC18\MPASM\p18cxxx.inc
                                             IFDEF __18F86J55                                                               C:\MCC18\MPASM\p18cxxx.inc
                                                INCLUDE <p18F86J55.INC>                                                     C:\MCC18\MPASM\p18cxxx.inc
                                             ENDIF                                                                          C:\MCC18\MPASM\p18cxxx.inc
                                             IFDEF __18F86J60                                                               C:\MCC18\MPASM\p18cxxx.inc
                                                INCLUDE <p18F86J60.INC>                                                     C:\MCC18\MPASM\p18cxxx.inc
                                             ENDIF                                                                          C:\MCC18\MPASM\p18cxxx.inc
                                             IFDEF __18F86J65                                                               C:\MCC18\MPASM\p18cxxx.inc
                                                INCLUDE <p18F86J65.INC>                                                     C:\MCC18\MPASM\p18cxxx.inc
                                             ENDIF                                                                          C:\MCC18\MPASM\p18cxxx.inc
                                             IFDEF __18F8720                                                                C:\MCC18\MPASM\p18cxxx.inc
                                                INCLUDE <p18F8720.INC>                                                      C:\MCC18\MPASM\p18cxxx.inc
                                             ENDIF                                                                          C:\MCC18\MPASM\p18cxxx.inc
                                             IFDEF __18F8722                                                                C:\MCC18\MPASM\p18cxxx.inc
                                                INCLUDE <p18F8722.INC>                                                      C:\MCC18\MPASM\p18cxxx.inc
                                             ENDIF                                                                          C:\MCC18\MPASM\p18cxxx.inc
                                             IFDEF __18F8723                                                                C:\MCC18\MPASM\p18cxxx.inc
                                                INCLUDE <p18F8723.INC>                                                      C:\MCC18\MPASM\p18cxxx.inc
                                             ENDIF                                                                          C:\MCC18\MPASM\p18cxxx.inc
                                             IFDEF __18F87J10                                                               C:\MCC18\MPASM\p18cxxx.inc
                                                INCLUDE <p18F87J10.INC>                                                     C:\MCC18\MPASM\p18cxxx.inc
                                             ENDIF                                                                          C:\MCC18\MPASM\p18cxxx.inc
                                             IFDEF __18F87J11                                                               C:\MCC18\MPASM\p18cxxx.inc
                                                INCLUDE <p18F87J11.INC>                                                     C:\MCC18\MPASM\p18cxxx.inc
                                             ENDIF                                                                          C:\MCC18\MPASM\p18cxxx.inc
                                             IFDEF __18F87J50                                                               C:\MCC18\MPASM\p18cxxx.inc
                                                INCLUDE <p18F87J50.INC>                                                     C:\MCC18\MPASM\p18cxxx.inc
                                             ENDIF                                                                          C:\MCC18\MPASM\p18cxxx.inc
                                             IFDEF __18F87J60                                                               C:\MCC18\MPASM\p18cxxx.inc
                                                INCLUDE <p18F87J60.INC>                                                     C:\MCC18\MPASM\p18cxxx.inc
                                             ENDIF                                                                          C:\MCC18\MPASM\p18cxxx.inc
                                             IFDEF __18F96J60                                                               C:\MCC18\MPASM\p18cxxx.inc
                                                INCLUDE <p18F96J60.INC>                                                     C:\MCC18\MPASM\p18cxxx.inc
                                             ENDIF                                                                          C:\MCC18\MPASM\p18cxxx.inc
                                             IFDEF __18F96J65                                                               C:\MCC18\MPASM\p18cxxx.inc
                                                INCLUDE <p18F96J65.INC>                                                     C:\MCC18\MPASM\p18cxxx.inc
                                             ENDIF                                                                          C:\MCC18\MPASM\p18cxxx.inc
                                             IFDEF __18F97J60                                                               C:\MCC18\MPASM\p18cxxx.inc
                                                INCLUDE <p18F97J60.INC>                                                     C:\MCC18\MPASM\p18cxxx.inc
                                             ENDIF                                                                          C:\MCC18\MPASM\p18cxxx.inc
                                                                                                                            C:\MCC18\MPASM\p18cxxx.inc
                                                   LIST                                                                     C:\MCC18\MPASM\P18CXXX.INC
                                           ; P18CXXX.INC  Standard Header File, Microchip Technology, Inc.                  C:\MCC18\MPASM\P18CXXX.INC
                                                   LIST                                                                     C:\MCC18\MPASM\P18C452.INC
                                           ; P18C452.INC  Standard Header File, Version 0.12   Microchip Technology, Inc.   C:\MCC18\MPASM\P18C452.INC
                                                   LIST                                                                     C:\MCC18\MPASM\P18C452.INC
                                             ENDIF                                                                          C:\MCC18\MPASM\P18CXXX.INC
                                             IFDEF __18C242                                                                 C:\MCC18\MPASM\P18CXXX.INC
                                                INCLUDE <p18C242.INC>                                                       C:\MCC18\MPASM\P18CXXX.INC
                                             ENDIF                                                                          C:\MCC18\MPASM\P18CXXX.INC
                                             IFDEF __18C252                                                                 C:\MCC18\MPASM\P18CXXX.INC
                                                INCLUDE <p18C252.INC>                                                       C:\MCC18\MPASM\P18CXXX.INC
                                             ENDIF                                                                          C:\MCC18\MPASM\P18CXXX.INC
                                             IFDEF __18C442                                                                 C:\MCC18\MPASM\P18CXXX.INC
                                                INCLUDE <p18C442.INC>                                                       C:\MCC18\MPASM\P18CXXX.INC
                                             ENDIF                                                                          C:\MCC18\MPASM\P18CXXX.INC
                                             IFDEF __18C452                                                                 C:\MCC18\MPASM\P18CXXX.INC
                                                INCLUDE <p18C452.INC>                                                       C:\MCC18\MPASM\P18CXXX.INC
                                             ENDIF                                                                          C:\MCC18\MPASM\P18CXXX.INC
                                             IFDEF __18C601                                                                 C:\MCC18\MPASM\P18CXXX.INC
                                                INCLUDE <p18C601.INC>                                                       C:\MCC18\MPASM\P18CXXX.INC
                                             ENDIF                                                                          C:\MCC18\MPASM\P18CXXX.INC
                                             IFDEF __18C658                                                                 C:\MCC18\MPASM\P18CXXX.INC
                                                INCLUDE <p18C658.INC>                                                       C:\MCC18\MPASM\P18CXXX.INC
                                             ENDIF                                                                          C:\MCC18\MPASM\P18CXXX.INC
                                             IFDEF __18C801                                                                 C:\MCC18\MPASM\P18CXXX.INC
                                                INCLUDE <p18C801.INC>                                                       C:\MCC18\MPASM\P18CXXX.INC
                                             ENDIF                                                                          C:\MCC18\MPASM\P18CXXX.INC
                                             IFDEF __18C858                                                                 C:\MCC18\MPASM\P18CXXX.INC
                                                INCLUDE <p18C858.INC>                                                       C:\MCC18\MPASM\P18CXXX.INC
                                             ENDIF                                                                          C:\MCC18\MPASM\P18CXXX.INC
                                             IFDEF __18F1220                                                                C:\MCC18\MPASM\P18CXXX.INC
                                                INCLUDE <p18F1220.INC>                                                      C:\MCC18\MPASM\P18CXXX.INC
                                             ENDIF                                                                          C:\MCC18\MPASM\P18CXXX.INC
                                             IFDEF __18F1230                                                                C:\MCC18\MPASM\P18CXXX.INC
                                                INCLUDE <p18F1230.INC>                                                      C:\MCC18\MPASM\P18CXXX.INC
                                             ENDIF                                                                          C:\MCC18\MPASM\P18CXXX.INC
                                             IFDEF __18F1320                                                                C:\MCC18\MPASM\P18CXXX.INC
                                                INCLUDE <p18F1320.INC>                                                      C:\MCC18\MPASM\P18CXXX.INC
                                             ENDIF                                                                          C:\MCC18\MPASM\P18CXXX.INC
                                             IFDEF __18F1330                                                                C:\MCC18\MPASM\P18CXXX.INC
                                                INCLUDE <p18F1330.INC>                                                      C:\MCC18\MPASM\P18CXXX.INC
                                             ENDIF                                                                          C:\MCC18\MPASM\P18CXXX.INC
                                             IFDEF __18F2220                                                                C:\MCC18\MPASM\P18CXXX.INC
                                                INCLUDE <p18F2220.INC>                                                      C:\MCC18\MPASM\P18CXXX.INC
                                             ENDIF                                                                          C:\MCC18\MPASM\P18CXXX.INC
                                             IFDEF __18F2221                                                                C:\MCC18\MPASM\P18CXXX.INC
                                                INCLUDE <p18F2221.INC>                                                      C:\MCC18\MPASM\P18CXXX.INC
                                             ENDIF                                                                          C:\MCC18\MPASM\P18CXXX.INC
                                             IFDEF __18F2320                                                                C:\MCC18\MPASM\P18CXXX.INC
                                                INCLUDE <p18F2320.INC>                                                      C:\MCC18\MPASM\P18CXXX.INC
                                             ENDIF                                                                          C:\MCC18\MPASM\P18CXXX.INC
                                             IFDEF __18F2321                                                                C:\MCC18\MPASM\P18CXXX.INC
                                                INCLUDE <p18F2321.INC>                                                      C:\MCC18\MPASM\P18CXXX.INC
                                             ENDIF                                                                          C:\MCC18\MPASM\P18CXXX.INC
                                             IFDEF __18F2331                                                                C:\MCC18\MPASM\P18CXXX.INC
                                                INCLUDE <p18F2331.INC>                                                      C:\MCC18\MPASM\P18CXXX.INC
                                             ENDIF                                                                          C:\MCC18\MPASM\P18CXXX.INC
                                             IFDEF __18F2410                                                                C:\MCC18\MPASM\P18CXXX.INC
                                                INCLUDE <p18F2410.INC>                                                      C:\MCC18\MPASM\P18CXXX.INC
                                             ENDIF                                                                          C:\MCC18\MPASM\P18CXXX.INC
                                             IFDEF __18F242                                                                 C:\MCC18\MPASM\P18CXXX.INC
                                                INCLUDE <p18F242.INC>                                                       C:\MCC18\MPASM\P18CXXX.INC
                                             ENDIF                                                                          C:\MCC18\MPASM\P18CXXX.INC
                                             IFDEF __18F2420                                                                C:\MCC18\MPASM\P18CXXX.INC
                                                INCLUDE <p18F2420.INC>                                                      C:\MCC18\MPASM\P18CXXX.INC
                                             ENDIF                                                                          C:\MCC18\MPASM\P18CXXX.INC
                                             IFDEF __18F2423                                                                C:\MCC18\MPASM\P18CXXX.INC
                                                INCLUDE <p18F2423.INC>                                                      C:\MCC18\MPASM\P18CXXX.INC
                                             ENDIF                                                                          C:\MCC18\MPASM\P18CXXX.INC
                                             IFDEF __18F2431                                                                C:\MCC18\MPASM\P18CXXX.INC
                                                INCLUDE <p18F2431.INC>                                                      C:\MCC18\MPASM\P18CXXX.INC
                                             ENDIF                                                                          C:\MCC18\MPASM\P18CXXX.INC
                                             IFDEF __18F2439                                                                C:\MCC18\MPASM\P18CXXX.INC
                                                INCLUDE <p18F2439.INC>                                                      C:\MCC18\MPASM\P18CXXX.INC
                                             ENDIF                                                                          C:\MCC18\MPASM\P18CXXX.INC
                                             IFDEF __18F2450                                                                C:\MCC18\MPASM\P18CXXX.INC
                                                INCLUDE <p18F2450.INC>                                                      C:\MCC18\MPASM\P18CXXX.INC
                                             ENDIF                                                                          C:\MCC18\MPASM\P18CXXX.INC
                                             IFDEF __18F2455                                                                C:\MCC18\MPASM\P18CXXX.INC
                                                INCLUDE <p18F2455.INC>                                                      C:\MCC18\MPASM\P18CXXX.INC
                                             ENDIF                                                                          C:\MCC18\MPASM\P18CXXX.INC
                                             IFDEF __18F2458                                                                C:\MCC18\MPASM\P18CXXX.INC
                                                INCLUDE <p18F2458.INC>                                                      C:\MCC18\MPASM\P18CXXX.INC
                                             ENDIF                                                                          C:\MCC18\MPASM\P18CXXX.INC
                                             IFDEF __18F248                                                                 C:\MCC18\MPASM\P18CXXX.INC
                                                INCLUDE <p18F248.INC>                                                       C:\MCC18\MPASM\P18CXXX.INC
                                             ENDIF                                                                          C:\MCC18\MPASM\P18CXXX.INC
                                             IFDEF __18F2480                                                                C:\MCC18\MPASM\P18CXXX.INC
                                                INCLUDE <p18F2480.INC>                                                      C:\MCC18\MPASM\P18CXXX.INC
                                             ENDIF                                                                          C:\MCC18\MPASM\P18CXXX.INC
                                             IFDEF __18F24J10                                                               C:\MCC18\MPASM\P18CXXX.INC
                                                INCLUDE <p18F24J10.INC>                                                     C:\MCC18\MPASM\P18CXXX.INC
                                             ENDIF                                                                          C:\MCC18\MPASM\P18CXXX.INC
                                             IFDEF __18F24K20                                                               C:\MCC18\MPASM\P18CXXX.INC
                                                INCLUDE <p18F24K20.INC>                                                     C:\MCC18\MPASM\P18CXXX.INC
                                             ENDIF                                                                          C:\MCC18\MPASM\P18CXXX.INC
                                             IFDEF __18F2510                                                                C:\MCC18\MPASM\P18CXXX.INC
                                                INCLUDE <p18F2510.INC>                                                      C:\MCC18\MPASM\P18CXXX.INC
                                             ENDIF                                                                          C:\MCC18\MPASM\P18CXXX.INC
                                             IFDEF __18F2515                                                                C:\MCC18\MPASM\P18CXXX.INC
                                                INCLUDE <p18F2515.INC>                                                      C:\MCC18\MPASM\P18CXXX.INC
                                             ENDIF                                                                          C:\MCC18\MPASM\P18CXXX.INC
                                             IFDEF __18F252                                                                 C:\MCC18\MPASM\P18CXXX.INC
                                                INCLUDE <p18F252.INC>                                                       C:\MCC18\MPASM\P18CXXX.INC
                                             ENDIF                                                                          C:\MCC18\MPASM\P18CXXX.INC
                                             IFDEF __18F2520                                                                C:\MCC18\MPASM\P18CXXX.INC
                                                INCLUDE <p18F2520.INC>                                                      C:\MCC18\MPASM\P18CXXX.INC
                                             ENDIF                                                                          C:\MCC18\MPASM\P18CXXX.INC
                                             IFDEF __18F2523                                                                C:\MCC18\MPASM\P18CXXX.INC
                                                INCLUDE <p18F2523.INC>                                                      C:\MCC18\MPASM\P18CXXX.INC
                                             ENDIF                                                                          C:\MCC18\MPASM\P18CXXX.INC
                                             IFDEF __18F2525                                                                C:\MCC18\MPASM\P18CXXX.INC
                                                INCLUDE <p18F2525.INC>                                                      C:\MCC18\MPASM\P18CXXX.INC
                                             ENDIF                                                                          C:\MCC18\MPASM\P18CXXX.INC
                                             IFDEF __18F2539                                                                C:\MCC18\MPASM\P18CXXX.INC
                                                INCLUDE <p18F2539.INC>                                                      C:\MCC18\MPASM\P18CXXX.INC
                                             ENDIF                                                                          C:\MCC18\MPASM\P18CXXX.INC
                                             IFDEF __18F2550                                                                C:\MCC18\MPASM\P18CXXX.INC
                                                INCLUDE <p18F2550.INC>                                                      C:\MCC18\MPASM\P18CXXX.INC
                                             ENDIF                                                                          C:\MCC18\MPASM\P18CXXX.INC
                                             IFDEF __18F2553                                                                C:\MCC18\MPASM\P18CXXX.INC
                                                INCLUDE <p18F2553.INC>                                                      C:\MCC18\MPASM\P18CXXX.INC
                                             ENDIF                                                                          C:\MCC18\MPASM\P18CXXX.INC
                                             IFDEF __18F258                                                                 C:\MCC18\MPASM\P18CXXX.INC
                                                INCLUDE <p18F258.INC>                                                       C:\MCC18\MPASM\P18CXXX.INC
                                             ENDIF                                                                          C:\MCC18\MPASM\P18CXXX.INC
                                             IFDEF __18F2580                                                                C:\MCC18\MPASM\P18CXXX.INC
                                                INCLUDE <p18F2580.INC>                                                      C:\MCC18\MPASM\P18CXXX.INC
                                             ENDIF                                                                          C:\MCC18\MPASM\P18CXXX.INC
                                             IFDEF __18F2585                                                                C:\MCC18\MPASM\P18CXXX.INC
                                                INCLUDE <p18F2585.INC>                                                      C:\MCC18\MPASM\P18CXXX.INC
                                             ENDIF                                                                          C:\MCC18\MPASM\P18CXXX.INC
                                             IFDEF __18F25J10                                                               C:\MCC18\MPASM\P18CXXX.INC
                                                INCLUDE <p18F25J10.INC>                                                     C:\MCC18\MPASM\P18CXXX.INC
                                             ENDIF                                                                          C:\MCC18\MPASM\P18CXXX.INC
                                             IFDEF __18F25K20                                                               C:\MCC18\MPASM\P18CXXX.INC
                                                INCLUDE <p18F25K20.INC>                                                     C:\MCC18\MPASM\P18CXXX.INC
                                             ENDIF                                                                          C:\MCC18\MPASM\P18CXXX.INC
                                             IFDEF __18F2610                                                                C:\MCC18\MPASM\P18CXXX.INC
                                                INCLUDE <p18F2610.INC>                                                      C:\MCC18\MPASM\P18CXXX.INC
                                             ENDIF                                                                          C:\MCC18\MPASM\P18CXXX.INC
                                             IFDEF __18F2620                                                                C:\MCC18\MPASM\P18CXXX.INC
                                                INCLUDE <p18F2620.INC>                                                      C:\MCC18\MPASM\P18CXXX.INC
                                             ENDIF                                                                          C:\MCC18\MPASM\P18CXXX.INC
                                             IFDEF __18F2680                                                                C:\MCC18\MPASM\P18CXXX.INC
                                                INCLUDE <p18F2680.INC>                                                      C:\MCC18\MPASM\P18CXXX.INC
                                             ENDIF                                                                          C:\MCC18\MPASM\P18CXXX.INC
                                             IFDEF __18F2682                                                                C:\MCC18\MPASM\P18CXXX.INC
                                                INCLUDE <p18F2682.INC>                                                      C:\MCC18\MPASM\P18CXXX.INC
                                             ENDIF                                                                          C:\MCC18\MPASM\P18CXXX.INC
                                             IFDEF __18F2685                                                                C:\MCC18\MPASM\P18CXXX.INC
                                                INCLUDE <p18F2685.INC>                                                      C:\MCC18\MPASM\P18CXXX.INC
                                             ENDIF                                                                          C:\MCC18\MPASM\P18CXXX.INC
                                             IFDEF __18F26K20                                                               C:\MCC18\MPASM\P18CXXX.INC
                                                INCLUDE <p18F26K20.INC>                                                     C:\MCC18\MPASM\P18CXXX.INC
                                             ENDIF                                                                          C:\MCC18\MPASM\P18CXXX.INC
                                             IFDEF __18F4220                                                                C:\MCC18\MPASM\P18CXXX.INC
                                                INCLUDE <p18F4220.INC>                                                      C:\MCC18\MPASM\P18CXXX.INC
                                             ENDIF                                                                          C:\MCC18\MPASM\P18CXXX.INC
                                             IFDEF __18F4221                                                                C:\MCC18\MPASM\P18CXXX.INC
                                                INCLUDE <p18F4221.INC>                                                      C:\MCC18\MPASM\P18CXXX.INC
                                             ENDIF                                                                          C:\MCC18\MPASM\P18CXXX.INC
                                             IFDEF __18F4320                                                                C:\MCC18\MPASM\P18CXXX.INC
                                                INCLUDE <p18F4320.INC>                                                      C:\MCC18\MPASM\P18CXXX.INC
                                             ENDIF                                                                          C:\MCC18\MPASM\P18CXXX.INC
                                             IFDEF __18F4321                                                                C:\MCC18\MPASM\P18CXXX.INC
                                                INCLUDE <p18F4321.INC>                                                      C:\MCC18\MPASM\P18CXXX.INC
                                             ENDIF                                                                          C:\MCC18\MPASM\P18CXXX.INC
                                             IFDEF __18F4331                                                                C:\MCC18\MPASM\P18CXXX.INC
                                                INCLUDE <p18F4331.INC>                                                      C:\MCC18\MPASM\P18CXXX.INC
                                             ENDIF                                                                          C:\MCC18\MPASM\P18CXXX.INC
                                             IFDEF __18F4410                                                                C:\MCC18\MPASM\P18CXXX.INC
                                                INCLUDE <p18F4410.INC>                                                      C:\MCC18\MPASM\P18CXXX.INC
                                             ENDIF                                                                          C:\MCC18\MPASM\P18CXXX.INC
                                             IFDEF __18F442                                                                 C:\MCC18\MPASM\P18CXXX.INC
                                                INCLUDE <p18F442.INC>                                                       C:\MCC18\MPASM\P18CXXX.INC
                                             ENDIF                                                                          C:\MCC18\MPASM\P18CXXX.INC
                                             IFDEF __18F4420                                                                C:\MCC18\MPASM\P18CXXX.INC
                                                INCLUDE <p18F4420.INC>                                                      C:\MCC18\MPASM\P18CXXX.INC
                                             ENDIF                                                                          C:\MCC18\MPASM\P18CXXX.INC
                                             IFDEF __18F4423                                                                C:\MCC18\MPASM\P18CXXX.INC
                                                INCLUDE <p18F4423.INC>                                                      C:\MCC18\MPASM\P18CXXX.INC
                                             ENDIF                                                                          C:\MCC18\MPASM\P18CXXX.INC
                                             IFDEF __18F4431                                                                C:\MCC18\MPASM\P18CXXX.INC
                                                INCLUDE <p18F4431.INC>                                                      C:\MCC18\MPASM\P18CXXX.INC
                                             ENDIF                                                                          C:\MCC18\MPASM\P18CXXX.INC
                                             IFDEF __18F4439                                                                C:\MCC18\MPASM\P18CXXX.INC
                                                INCLUDE <p18F4439.INC>                                                      C:\MCC18\MPASM\P18CXXX.INC
                                             ENDIF                                                                          C:\MCC18\MPASM\P18CXXX.INC
                                             IFDEF __18F4450                                                                C:\MCC18\MPASM\P18CXXX.INC
                                                INCLUDE <p18F4450.INC>                                                      C:\MCC18\MPASM\P18CXXX.INC
                                             ENDIF                                                                          C:\MCC18\MPASM\P18CXXX.INC
                                             IFDEF __18F4455                                                                C:\MCC18\MPASM\P18CXXX.INC
                                                INCLUDE <p18F4455.INC>                                                      C:\MCC18\MPASM\P18CXXX.INC
                                             ENDIF                                                                          C:\MCC18\MPASM\P18CXXX.INC
                                             IFDEF __18F4458                                                                C:\MCC18\MPASM\P18CXXX.INC
                                                INCLUDE <p18F4458.INC>                                                      C:\MCC18\MPASM\P18CXXX.INC
                                             ENDIF                                                                          C:\MCC18\MPASM\P18CXXX.INC
                                             IFDEF __18F448                                                                 C:\MCC18\MPASM\P18CXXX.INC
                                                INCLUDE <p18F448.INC>                                                       C:\MCC18\MPASM\P18CXXX.INC
                                             ENDIF                                                                          C:\MCC18\MPASM\P18CXXX.INC
                                             IFDEF __18F4480                                                                C:\MCC18\MPASM\P18CXXX.INC
                                                INCLUDE <p18F4480.INC>                                                      C:\MCC18\MPASM\P18CXXX.INC
                                             ENDIF                                                                          C:\MCC18\MPASM\P18CXXX.INC
                                             IFDEF __18F44J10                                                               C:\MCC18\MPASM\P18CXXX.INC
                                                INCLUDE <p18F44J10.INC>                                                     C:\MCC18\MPASM\P18CXXX.INC
                                             ENDIF                                                                          C:\MCC18\MPASM\P18CXXX.INC
                                             IFDEF __18F44K20                                                               C:\MCC18\MPASM\P18CXXX.INC
                                                INCLUDE <p18F44K20.INC>                                                     C:\MCC18\MPASM\P18CXXX.INC
                                             ENDIF                                                                          C:\MCC18\MPASM\P18CXXX.INC
                                             IFDEF __18F4510                                                                C:\MCC18\MPASM\P18CXXX.INC
                                                INCLUDE <p18F4510.INC>                                                      C:\MCC18\MPASM\P18CXXX.INC
                                             ENDIF                                                                          C:\MCC18\MPASM\P18CXXX.INC
                                             IFDEF __18F4515                                                                C:\MCC18\MPASM\P18CXXX.INC
                                                INCLUDE <p18F4515.INC>                                                      C:\MCC18\MPASM\P18CXXX.INC
                                             ENDIF                                                                          C:\MCC18\MPASM\P18CXXX.INC
                                             IFDEF __18F452                                                                 C:\MCC18\MPASM\P18CXXX.INC
                                                INCLUDE <p18F452.INC>                                                       C:\MCC18\MPASM\P18CXXX.INC
                                             ENDIF                                                                          C:\MCC18\MPASM\P18CXXX.INC
                                             IFDEF __18F4520                                                                C:\MCC18\MPASM\P18CXXX.INC
                                                INCLUDE <p18F4520.INC>                                                      C:\MCC18\MPASM\P18CXXX.INC
                                             ENDIF                                                                          C:\MCC18\MPASM\P18CXXX.INC
                                             IFDEF __18F4523                                                                C:\MCC18\MPASM\P18CXXX.INC
                                                INCLUDE <p18F4523.INC>                                                      C:\MCC18\MPASM\P18CXXX.INC
                                             ENDIF                                                                          C:\MCC18\MPASM\P18CXXX.INC
                                             IFDEF __18F4525                                                                C:\MCC18\MPASM\P18CXXX.INC
                                                INCLUDE <p18F4525.INC>                                                      C:\MCC18\MPASM\P18CXXX.INC
                                             ENDIF                                                                          C:\MCC18\MPASM\P18CXXX.INC
                                             IFDEF __18F4539                                                                C:\MCC18\MPASM\P18CXXX.INC
                                                INCLUDE <p18F4539.INC>                                                      C:\MCC18\MPASM\P18CXXX.INC
                                             ENDIF                                                                          C:\MCC18\MPASM\P18CXXX.INC
                                             IFDEF __18F4550                                                                C:\MCC18\MPASM\P18CXXX.INC
                                                INCLUDE <p18F4550.INC>                                                      C:\MCC18\MPASM\P18CXXX.INC
                                             ENDIF                                                                          C:\MCC18\MPASM\P18CXXX.INC
                                             IFDEF __18F4553                                                                C:\MCC18\MPASM\P18CXXX.INC
                                                INCLUDE <p18F4553.INC>                                                      C:\MCC18\MPASM\P18CXXX.INC
                                             ENDIF                                                                          C:\MCC18\MPASM\P18CXXX.INC
                                             IFDEF __18F458                                                                 C:\MCC18\MPASM\P18CXXX.INC
                                                INCLUDE <p18F458.INC>                                                       C:\MCC18\MPASM\P18CXXX.INC
                                             ENDIF                                                                          C:\MCC18\MPASM\P18CXXX.INC
                                             IFDEF __18F4580                                                                C:\MCC18\MPASM\P18CXXX.INC
                                                INCLUDE <p18F4580.INC>                                                      C:\MCC18\MPASM\P18CXXX.INC
                                             ENDIF                                                                          C:\MCC18\MPASM\P18CXXX.INC
                                             IFDEF __18F4585                                                                C:\MCC18\MPASM\P18CXXX.INC
                                                INCLUDE <p18F4585.INC>                                                      C:\MCC18\MPASM\P18CXXX.INC
                                             ENDIF                                                                          C:\MCC18\MPASM\P18CXXX.INC
                                             IFDEF __18F45J10                                                               C:\MCC18\MPASM\P18CXXX.INC
                                                INCLUDE <p18F45J10.INC>                                                     C:\MCC18\MPASM\P18CXXX.INC
                                             ENDIF                                                                          C:\MCC18\MPASM\P18CXXX.INC
                                             IFDEF __18F45K20                                                               C:\MCC18\MPASM\P18CXXX.INC
                                                INCLUDE <p18F45K20.INC>                                                     C:\MCC18\MPASM\P18CXXX.INC
                                             ENDIF                                                                          C:\MCC18\MPASM\P18CXXX.INC
                                             IFDEF __18F4610                                                                C:\MCC18\MPASM\P18CXXX.INC
                                                INCLUDE <p18F4610.INC>                                                      C:\MCC18\MPASM\P18CXXX.INC
                                             ENDIF                                                                          C:\MCC18\MPASM\P18CXXX.INC
                                             IFDEF __18F4620                                                                C:\MCC18\MPASM\P18CXXX.INC
                                                INCLUDE <p18F4620.INC>                                                      C:\MCC18\MPASM\P18CXXX.INC
                                             ENDIF                                                                          C:\MCC18\MPASM\P18CXXX.INC
                                             IFDEF __18F4680                                                                C:\MCC18\MPASM\P18CXXX.INC
                                                INCLUDE <p18F4680.INC>                                                      C:\MCC18\MPASM\P18CXXX.INC
                                             ENDIF                                                                          C:\MCC18\MPASM\P18CXXX.INC
                                             IFDEF __18F4682                                                                C:\MCC18\MPASM\P18CXXX.INC
                                                INCLUDE <p18F4682.INC>                                                      C:\MCC18\MPASM\P18CXXX.INC
                                             ENDIF                                                                          C:\MCC18\MPASM\P18CXXX.INC
                                             IFDEF __18F4685                                                                C:\MCC18\MPASM\P18CXXX.INC
                                                INCLUDE <p18F4685.INC>                                                      C:\MCC18\MPASM\P18CXXX.INC
                                             ENDIF                                                                          C:\MCC18\MPASM\P18CXXX.INC
                                             IFDEF __18F46K20                                                               C:\MCC18\MPASM\P18CXXX.INC
                                                INCLUDE <p18F46K20.INC>                                                     C:\MCC18\MPASM\P18CXXX.INC
                                             ENDIF                                                                          C:\MCC18\MPASM\P18CXXX.INC
                                             IFDEF __18F6310                                                                C:\MCC18\MPASM\P18CXXX.INC
                                                INCLUDE <p18F6310.INC>                                                      C:\MCC18\MPASM\P18CXXX.INC
                                             ENDIF                                                                          C:\MCC18\MPASM\P18CXXX.INC
                                             IFDEF __18F6390                                                                C:\MCC18\MPASM\P18CXXX.INC
                                                INCLUDE <p18F6390.INC>                                                      C:\MCC18\MPASM\P18CXXX.INC
                                             ENDIF                                                                          C:\MCC18\MPASM\P18CXXX.INC
                                             IFDEF __18F63J11                                                               C:\MCC18\MPASM\P18CXXX.INC
                                                INCLUDE <p18F63J11.INC>                                                     C:\MCC18\MPASM\P18CXXX.INC
                                             ENDIF                                                                          C:\MCC18\MPASM\P18CXXX.INC
                                             IFDEF __18F63J90                                                               C:\MCC18\MPASM\P18CXXX.INC
                                                INCLUDE <p18F63J90.INC>                                                     C:\MCC18\MPASM\P18CXXX.INC
                                             ENDIF                                                                          C:\MCC18\MPASM\P18CXXX.INC
                                             IFDEF __18F6410                                                                C:\MCC18\MPASM\P18CXXX.INC
                                                INCLUDE <p18F6410.INC>                                                      C:\MCC18\MPASM\P18CXXX.INC
                                             ENDIF                                                                          C:\MCC18\MPASM\P18CXXX.INC
                                             IFDEF __18F6490                                                                C:\MCC18\MPASM\P18CXXX.INC
                                                INCLUDE <p18F6490.INC>                                                      C:\MCC18\MPASM\P18CXXX.INC
                                             ENDIF                                                                          C:\MCC18\MPASM\P18CXXX.INC
                                             IFDEF __18F64J11                                                               C:\MCC18\MPASM\P18CXXX.INC
                                                INCLUDE <p18F64J11.INC>                                                     C:\MCC18\MPASM\P18CXXX.INC
                                             ENDIF                                                                          C:\MCC18\MPASM\P18CXXX.INC
                                             IFDEF __18F64J90                                                               C:\MCC18\MPASM\P18CXXX.INC
                                                INCLUDE <p18F64J90.INC>                                                     C:\MCC18\MPASM\P18CXXX.INC
                                             ENDIF                                                                          C:\MCC18\MPASM\P18CXXX.INC
                                             IFDEF __18F6520                                                                C:\MCC18\MPASM\P18CXXX.INC
                                                INCLUDE <p18F6520.INC>                                                      C:\MCC18\MPASM\P18CXXX.INC
                                             ENDIF                                                                          C:\MCC18\MPASM\P18CXXX.INC
                                             IFDEF __18F6525                                                                C:\MCC18\MPASM\P18CXXX.INC
                                                INCLUDE <p18F6525.INC>                                                      C:\MCC18\MPASM\P18CXXX.INC
                                             ENDIF                                                                          C:\MCC18\MPASM\P18CXXX.INC
                                             IFDEF __18F6527                                                                C:\MCC18\MPASM\P18CXXX.INC
                                                INCLUDE <p18F6527.INC>                                                      C:\MCC18\MPASM\P18CXXX.INC
                                             ENDIF                                                                          C:\MCC18\MPASM\P18CXXX.INC
                                             IFDEF __18F6585                                                                C:\MCC18\MPASM\P18CXXX.INC
                                                INCLUDE <p18F6585.INC>                                                      C:\MCC18\MPASM\P18CXXX.INC
                                             ENDIF                                                                          C:\MCC18\MPASM\P18CXXX.INC
                                             IFDEF __18F65J10                                                               C:\MCC18\MPASM\P18CXXX.INC
                                                INCLUDE <p18F65J10.INC>                                                     C:\MCC18\MPASM\P18CXXX.INC
                                             ENDIF                                                                          C:\MCC18\MPASM\P18CXXX.INC
                                             IFDEF __18F65J11                                                               C:\MCC18\MPASM\P18CXXX.INC
                                                INCLUDE <p18F65J11.INC>                                                     C:\MCC18\MPASM\P18CXXX.INC
                                             ENDIF                                                                          C:\MCC18\MPASM\P18CXXX.INC
                                             IFDEF __18F65J15                                                               C:\MCC18\MPASM\P18CXXX.INC
                                                INCLUDE <p18F65J15.INC>                                                     C:\MCC18\MPASM\P18CXXX.INC
                                             ENDIF                                                                          C:\MCC18\MPASM\P18CXXX.INC
                                             IFDEF __18F65J50                                                               C:\MCC18\MPASM\P18CXXX.INC
                                                INCLUDE <p18F65J50.INC>                                                     C:\MCC18\MPASM\P18CXXX.INC
                                             ENDIF                                                                          C:\MCC18\MPASM\P18CXXX.INC
                                             IFDEF __18F65J90                                                               C:\MCC18\MPASM\P18CXXX.INC
                                                INCLUDE <p18F65J90.INC>                                                     C:\MCC18\MPASM\P18CXXX.INC
                                             ENDIF                                                                          C:\MCC18\MPASM\P18CXXX.INC
                                             IFDEF __18F6620                                                                C:\MCC18\MPASM\P18CXXX.INC
                                                INCLUDE <p18F6620.INC>                                                      C:\MCC18\MPASM\P18CXXX.INC
                                             ENDIF                                                                          C:\MCC18\MPASM\P18CXXX.INC
                                             IFDEF __18F6621                                                                C:\MCC18\MPASM\P18CXXX.INC
                                                INCLUDE <p18F6621.INC>                                                      C:\MCC18\MPASM\P18CXXX.INC
                                             ENDIF                                                                          C:\MCC18\MPASM\P18CXXX.INC
                                             IFDEF __18F6622                                                                C:\MCC18\MPASM\P18CXXX.INC
                                                INCLUDE <p18F6622.INC>                                                      C:\MCC18\MPASM\P18CXXX.INC
                                             ENDIF                                                                          C:\MCC18\MPASM\P18CXXX.INC
                                             IFDEF __18F6627                                                                C:\MCC18\MPASM\P18CXXX.INC
                                                INCLUDE <p18F6627.INC>                                                      C:\MCC18\MPASM\P18CXXX.INC
                                             ENDIF                                                                          C:\MCC18\MPASM\P18CXXX.INC
                                             IFDEF __18F6628                                                                C:\MCC18\MPASM\P18CXXX.INC
                                                INCLUDE <p18F6628.INC>                                                      C:\MCC18\MPASM\P18CXXX.INC
                                             ENDIF                                                                          C:\MCC18\MPASM\P18CXXX.INC
                                             IFDEF __18F6680                                                                C:\MCC18\MPASM\P18CXXX.INC
                                                INCLUDE <p18F6680.INC>                                                      C:\MCC18\MPASM\P18CXXX.INC
                                             ENDIF                                                                          C:\MCC18\MPASM\P18CXXX.INC
                                             IFDEF __18F66J10                                                               C:\MCC18\MPASM\P18CXXX.INC
                                                INCLUDE <p18F66J10.INC>                                                     C:\MCC18\MPASM\P18CXXX.INC
                                             ENDIF                                                                          C:\MCC18\MPASM\P18CXXX.INC
                                             IFDEF __18F66J11                                                               C:\MCC18\MPASM\P18CXXX.INC
                                                INCLUDE <p18F66J11.INC>                                                     C:\MCC18\MPASM\P18CXXX.INC
                                             ENDIF                                                                          C:\MCC18\MPASM\P18CXXX.INC
                                             IFDEF __18F66J15                                                               C:\MCC18\MPASM\P18CXXX.INC
                                                INCLUDE <p18F66J15.INC>                                                     C:\MCC18\MPASM\P18CXXX.INC
                                             ENDIF                                                                          C:\MCC18\MPASM\P18CXXX.INC
                                             IFDEF __18F66J16                                                               C:\MCC18\MPASM\P18CXXX.INC
                                                INCLUDE <p18F66J16.INC>                                                     C:\MCC18\MPASM\P18CXXX.INC
                                             ENDIF                                                                          C:\MCC18\MPASM\P18CXXX.INC
                                             IFDEF __18F66J50                                                               C:\MCC18\MPASM\P18CXXX.INC
                                                INCLUDE <p18F66J50.INC>                                                     C:\MCC18\MPASM\P18CXXX.INC
                                             ENDIF                                                                          C:\MCC18\MPASM\P18CXXX.INC
                                             IFDEF __18F66J55                                                               C:\MCC18\MPASM\P18CXXX.INC
                                                INCLUDE <p18F66J55.INC>                                                     C:\MCC18\MPASM\P18CXXX.INC
                                             ENDIF                                                                          C:\MCC18\MPASM\P18CXXX.INC
                                             IFDEF __18F66J60                                                               C:\MCC18\MPASM\P18CXXX.INC
                                                INCLUDE <p18F66J60.INC>                                                     C:\MCC18\MPASM\P18CXXX.INC
                                             ENDIF                                                                          C:\MCC18\MPASM\P18CXXX.INC
                                             IFDEF __18F66J65                                                               C:\MCC18\MPASM\P18CXXX.INC
                                                INCLUDE <p18F66J65.INC>                                                     C:\MCC18\MPASM\P18CXXX.INC
                                             ENDIF                                                                          C:\MCC18\MPASM\P18CXXX.INC
                                             IFDEF __18F6720                                                                C:\MCC18\MPASM\P18CXXX.INC
                                                INCLUDE <p18F6720.INC>                                                      C:\MCC18\MPASM\P18CXXX.INC
                                             ENDIF                                                                          C:\MCC18\MPASM\P18CXXX.INC
                                             IFDEF __18F6722                                                                C:\MCC18\MPASM\P18CXXX.INC
                                                INCLUDE <p18F6722.INC>                                                      C:\MCC18\MPASM\P18CXXX.INC
                                             ENDIF                                                                          C:\MCC18\MPASM\P18CXXX.INC
                                             IFDEF __18F6723                                                                C:\MCC18\MPASM\P18CXXX.INC
                                                INCLUDE <p18F6723.INC>                                                      C:\MCC18\MPASM\P18CXXX.INC
                                             ENDIF                                                                          C:\MCC18\MPASM\P18CXXX.INC
                                             IFDEF __18F67J10                                                               C:\MCC18\MPASM\P18CXXX.INC
                                                INCLUDE <p18F67J10.INC>                                                     C:\MCC18\MPASM\P18CXXX.INC
                                             ENDIF                                                                          C:\MCC18\MPASM\P18CXXX.INC
                                             IFDEF __18F67J11                                                               C:\MCC18\MPASM\P18CXXX.INC
                                                INCLUDE <p18F67J11.INC>                                                     C:\MCC18\MPASM\P18CXXX.INC
                                             ENDIF                                                                          C:\MCC18\MPASM\P18CXXX.INC
                                             IFDEF __18F67J50                                                               C:\MCC18\MPASM\P18CXXX.INC
                                                INCLUDE <p18F67J50.INC>                                                     C:\MCC18\MPASM\P18CXXX.INC
                                             ENDIF                                                                          C:\MCC18\MPASM\P18CXXX.INC
                                             IFDEF __18F67J60                                                               C:\MCC18\MPASM\P18CXXX.INC
                                                INCLUDE <p18F67J60.INC>                                                     C:\MCC18\MPASM\P18CXXX.INC
                                             ENDIF                                                                          C:\MCC18\MPASM\P18CXXX.INC
                                             IFDEF __18F8310                                                                C:\MCC18\MPASM\P18CXXX.INC
                                                INCLUDE <p18F8310.INC>                                                      C:\MCC18\MPASM\P18CXXX.INC
                                             ENDIF                                                                          C:\MCC18\MPASM\P18CXXX.INC
                                             IFDEF __18F8390                                                                C:\MCC18\MPASM\P18CXXX.INC
                                                INCLUDE <p18F8390.INC>                                                      C:\MCC18\MPASM\P18CXXX.INC
                                             ENDIF                                                                          C:\MCC18\MPASM\P18CXXX.INC
                                             IFDEF __18F83J11                                                               C:\MCC18\MPASM\P18CXXX.INC
                                                INCLUDE <p18F83J11.INC>                                                     C:\MCC18\MPASM\P18CXXX.INC
                                             ENDIF                                                                          C:\MCC18\MPASM\P18CXXX.INC
                                             IFDEF __18F83J90                                                               C:\MCC18\MPASM\P18CXXX.INC
                                                INCLUDE <p18F83J90.INC>                                                     C:\MCC18\MPASM\P18CXXX.INC
                                             ENDIF                                                                          C:\MCC18\MPASM\P18CXXX.INC
                                             IFDEF __18F8410                                                                C:\MCC18\MPASM\P18CXXX.INC
                                                INCLUDE <p18F8410.INC>                                                      C:\MCC18\MPASM\P18CXXX.INC
                                             ENDIF                                                                          C:\MCC18\MPASM\P18CXXX.INC
                                             IFDEF __18F8490                                                                C:\MCC18\MPASM\P18CXXX.INC
                                                INCLUDE <p18F8490.INC>                                                      C:\MCC18\MPASM\P18CXXX.INC
                                             ENDIF                                                                          C:\MCC18\MPASM\P18CXXX.INC
                                             IFDEF __18F84J11                                                               C:\MCC18\MPASM\P18CXXX.INC
                                                INCLUDE <p18F84J11.INC>                                                     C:\MCC18\MPASM\P18CXXX.INC
                                             ENDIF                                                                          C:\MCC18\MPASM\P18CXXX.INC
                                             IFDEF __18F84J90                                                               C:\MCC18\MPASM\P18CXXX.INC
                                                INCLUDE <p18F84J90.INC>                                                     C:\MCC18\MPASM\P18CXXX.INC
                                             ENDIF                                                                          C:\MCC18\MPASM\P18CXXX.INC
                                             IFDEF __18F8520                                                                C:\MCC18\MPASM\P18CXXX.INC
                                                INCLUDE <p18F8520.INC>                                                      C:\MCC18\MPASM\P18CXXX.INC
                                             ENDIF                                                                          C:\MCC18\MPASM\P18CXXX.INC
                                             IFDEF __18F8525                                                                C:\MCC18\MPASM\P18CXXX.INC
                                                INCLUDE <p18F8525.INC>                                                      C:\MCC18\MPASM\P18CXXX.INC
                                             ENDIF                                                                          C:\MCC18\MPASM\P18CXXX.INC
                                             IFDEF __18F8527                                                                C:\MCC18\MPASM\P18CXXX.INC
                                                INCLUDE <p18F8527.INC>                                                      C:\MCC18\MPASM\P18CXXX.INC
                                             ENDIF                                                                          C:\MCC18\MPASM\P18CXXX.INC
                                             IFDEF __18F8585                                                                C:\MCC18\MPASM\P18CXXX.INC
                                                INCLUDE <p18F8585.INC>                                                      C:\MCC18\MPASM\P18CXXX.INC
                                             ENDIF                                                                          C:\MCC18\MPASM\P18CXXX.INC
                                             IFDEF __18F85J10                                                               C:\MCC18\MPASM\P18CXXX.INC
                                                INCLUDE <p18F85J10.INC>                                                     C:\MCC18\MPASM\P18CXXX.INC
                                             ENDIF                                                                          C:\MCC18\MPASM\P18CXXX.INC
                                             IFDEF __18F85J11                                                               C:\MCC18\MPASM\P18CXXX.INC
                                                INCLUDE <p18F85J11.INC>                                                     C:\MCC18\MPASM\P18CXXX.INC
                                             ENDIF                                                                          C:\MCC18\MPASM\P18CXXX.INC
                                             IFDEF __18F85J15                                                               C:\MCC18\MPASM\P18CXXX.INC
                                                INCLUDE <p18F85J15.INC>                                                     C:\MCC18\MPASM\P18CXXX.INC
                                             ENDIF                                                                          C:\MCC18\MPASM\P18CXXX.INC
                                             IFDEF __18F85J50                                                               C:\MCC18\MPASM\P18CXXX.INC
                                                INCLUDE <p18F85J50.INC>                                                     C:\MCC18\MPASM\P18CXXX.INC
                                             ENDIF                                                                          C:\MCC18\MPASM\P18CXXX.INC
                                             IFDEF __18F85J90                                                               C:\MCC18\MPASM\P18CXXX.INC
                                                INCLUDE <p18F85J90.INC>                                                     C:\MCC18\MPASM\P18CXXX.INC
                                             ENDIF                                                                          C:\MCC18\MPASM\P18CXXX.INC
                                             IFDEF __18F8620                                                                C:\MCC18\MPASM\P18CXXX.INC
                                                INCLUDE <p18F8620.INC>                                                      C:\MCC18\MPASM\P18CXXX.INC
                                             ENDIF                                                                          C:\MCC18\MPASM\P18CXXX.INC
                                             IFDEF __18F8621                                                                C:\MCC18\MPASM\P18CXXX.INC
                                                INCLUDE <p18F8621.INC>                                                      C:\MCC18\MPASM\P18CXXX.INC
                                             ENDIF                                                                          C:\MCC18\MPASM\P18CXXX.INC
                                             IFDEF __18F8622                                                                C:\MCC18\MPASM\P18CXXX.INC
                                                INCLUDE <p18F8622.INC>                                                      C:\MCC18\MPASM\P18CXXX.INC
                                             ENDIF                                                                          C:\MCC18\MPASM\P18CXXX.INC
                                             IFDEF __18F8627                                                                C:\MCC18\MPASM\P18CXXX.INC
                                                INCLUDE <p18F8627.INC>                                                      C:\MCC18\MPASM\P18CXXX.INC
                                             ENDIF                                                                          C:\MCC18\MPASM\P18CXXX.INC
                                             IFDEF __18F8628                                                                C:\MCC18\MPASM\P18CXXX.INC
                                                INCLUDE <p18F8628.INC>                                                      C:\MCC18\MPASM\P18CXXX.INC
                                             ENDIF                                                                          C:\MCC18\MPASM\P18CXXX.INC
                                             IFDEF __18F8680                                                                C:\MCC18\MPASM\P18CXXX.INC
                                                INCLUDE <p18F8680.INC>                                                      C:\MCC18\MPASM\P18CXXX.INC
                                             ENDIF                                                                          C:\MCC18\MPASM\P18CXXX.INC
                                             IFDEF __18F86J10                                                               C:\MCC18\MPASM\P18CXXX.INC
                                                INCLUDE <p18F86J10.INC>                                                     C:\MCC18\MPASM\P18CXXX.INC
                                             ENDIF                                                                          C:\MCC18\MPASM\P18CXXX.INC
                                             IFDEF __18F86J11                                                               C:\MCC18\MPASM\P18CXXX.INC
                                                INCLUDE <p18F86J11.INC>                                                     C:\MCC18\MPASM\P18CXXX.INC
                                             ENDIF                                                                          C:\MCC18\MPASM\P18CXXX.INC
                                             IFDEF __18F86J15                                                               C:\MCC18\MPASM\P18CXXX.INC
                                                INCLUDE <p18F86J15.INC>                                                     C:\MCC18\MPASM\P18CXXX.INC
                                             ENDIF                                                                          C:\MCC18\MPASM\P18CXXX.INC
                                             IFDEF __18F86J16                                                               C:\MCC18\MPASM\P18CXXX.INC
                                                INCLUDE <p18F86J16.INC>                                                     C:\MCC18\MPASM\P18CXXX.INC
                                             ENDIF                                                                          C:\MCC18\MPASM\P18CXXX.INC
                                             IFDEF __18F86J50                                                               C:\MCC18\MPASM\P18CXXX.INC
                                                INCLUDE <p18F86J50.INC>                                                     C:\MCC18\MPASM\P18CXXX.INC
                                             ENDIF                                                                          C:\MCC18\MPASM\P18CXXX.INC
                                             IFDEF __18F86J55                                                               C:\MCC18\MPASM\P18CXXX.INC
                                                INCLUDE <p18F86J55.INC>                                                     C:\MCC18\MPASM\P18CXXX.INC
                                             ENDIF                                                                          C:\MCC18\MPASM\P18CXXX.INC
                                             IFDEF __18F86J60                                                               C:\MCC18\MPASM\P18CXXX.INC
                                                INCLUDE <p18F86J60.INC>                                                     C:\MCC18\MPASM\P18CXXX.INC
                                             ENDIF                                                                          C:\MCC18\MPASM\P18CXXX.INC
                                             IFDEF __18F86J65                                                               C:\MCC18\MPASM\P18CXXX.INC
                                                INCLUDE <p18F86J65.INC>                                                     C:\MCC18\MPASM\P18CXXX.INC
                                             ENDIF                                                                          C:\MCC18\MPASM\P18CXXX.INC
                                             IFDEF __18F8720                                                                C:\MCC18\MPASM\P18CXXX.INC
                                                INCLUDE <p18F8720.INC>                                                      C:\MCC18\MPASM\P18CXXX.INC
                                             ENDIF                                                                          C:\MCC18\MPASM\P18CXXX.INC
                                             IFDEF __18F8722                                                                C:\MCC18\MPASM\P18CXXX.INC
                                                INCLUDE <p18F8722.INC>                                                      C:\MCC18\MPASM\P18CXXX.INC
                                             ENDIF                                                                          C:\MCC18\MPASM\P18CXXX.INC
                                             IFDEF __18F8723                                                                C:\MCC18\MPASM\P18CXXX.INC
                                                INCLUDE <p18F8723.INC>                                                      C:\MCC18\MPASM\P18CXXX.INC
                                             ENDIF                                                                          C:\MCC18\MPASM\P18CXXX.INC
                                             IFDEF __18F87J10                                                               C:\MCC18\MPASM\P18CXXX.INC
                                                INCLUDE <p18F87J10.INC>                                                     C:\MCC18\MPASM\P18CXXX.INC
                                             ENDIF                                                                          C:\MCC18\MPASM\P18CXXX.INC
                                             IFDEF __18F87J11                                                               C:\MCC18\MPASM\P18CXXX.INC
                                                INCLUDE <p18F87J11.INC>                                                     C:\MCC18\MPASM\P18CXXX.INC
                                             ENDIF                                                                          C:\MCC18\MPASM\P18CXXX.INC
                                             IFDEF __18F87J50                                                               C:\MCC18\MPASM\P18CXXX.INC
                                                INCLUDE <p18F87J50.INC>                                                     C:\MCC18\MPASM\P18CXXX.INC
                                             ENDIF                                                                          C:\MCC18\MPASM\P18CXXX.INC
                                             IFDEF __18F87J60                                                               C:\MCC18\MPASM\P18CXXX.INC
                                                INCLUDE <p18F87J60.INC>                                                     C:\MCC18\MPASM\P18CXXX.INC
                                             ENDIF                                                                          C:\MCC18\MPASM\P18CXXX.INC
                                             IFDEF __18F96J60                                                               C:\MCC18\MPASM\P18CXXX.INC
                                                INCLUDE <p18F96J60.INC>                                                     C:\MCC18\MPASM\P18CXXX.INC
                                             ENDIF                                                                          C:\MCC18\MPASM\P18CXXX.INC
                                             IFDEF __18F96J65                                                               C:\MCC18\MPASM\P18CXXX.INC
                                                INCLUDE <p18F96J65.INC>                                                     C:\MCC18\MPASM\P18CXXX.INC
                                             ENDIF                                                                          C:\MCC18\MPASM\P18CXXX.INC
                                             IFDEF __18F97J60                                                               C:\MCC18\MPASM\P18CXXX.INC
                                                INCLUDE <p18F97J60.INC>                                                     C:\MCC18\MPASM\P18CXXX.INC
                                             ENDIF                                                                          C:\MCC18\MPASM\P18CXXX.INC
                                                                                                                            C:\MCC18\MPASM\P18CXXX.INC
                                                   LIST                                                                     C:\MCC18\MPASM\P18CXXX.INC
                                           ; P18CXXX.INC  Standard Header File, Microchip Technology, Inc.                  C:\MCC18\MPASM\P18CXXX.INC
                                                   LIST                                                                     C:\MCC18\MPASM\P18C452.INC
                                           ; P18C452.INC  Standard Header File, Version 0.12   Microchip Technology, Inc.   C:\MCC18\MPASM\P18C452.INC
                                                   LIST                                                                     C:\MCC18\MPASM\P18C452.INC
                                             ENDIF                                                                          C:\MCC18\MPASM\P18CXXX.INC
                                             IFDEF __18C242                                                                 C:\MCC18\MPASM\P18CXXX.INC
                                                INCLUDE <p18C242.INC>                                                       C:\MCC18\MPASM\P18CXXX.INC
                                             ENDIF                                                                          C:\MCC18\MPASM\P18CXXX.INC
                                             IFDEF __18C252                                                                 C:\MCC18\MPASM\P18CXXX.INC
                                                INCLUDE <p18C252.INC>                                                       C:\MCC18\MPASM\P18CXXX.INC
                                             ENDIF                                                                          C:\MCC18\MPASM\P18CXXX.INC
                                             IFDEF __18C442                                                                 C:\MCC18\MPASM\P18CXXX.INC
                                                INCLUDE <p18C442.INC>                                                       C:\MCC18\MPASM\P18CXXX.INC
                                             ENDIF                                                                          C:\MCC18\MPASM\P18CXXX.INC
                                             IFDEF __18C452                                                                 C:\MCC18\MPASM\P18CXXX.INC
                                                INCLUDE <p18C452.INC>                                                       C:\MCC18\MPASM\P18CXXX.INC
                                             ENDIF                                                                          C:\MCC18\MPASM\P18CXXX.INC
                                             IFDEF __18C601                                                                 C:\MCC18\MPASM\P18CXXX.INC
                                                INCLUDE <p18C601.INC>                                                       C:\MCC18\MPASM\P18CXXX.INC
                                             ENDIF                                                                          C:\MCC18\MPASM\P18CXXX.INC
                                             IFDEF __18C658                                                                 C:\MCC18\MPASM\P18CXXX.INC
                                                INCLUDE <p18C658.INC>                                                       C:\MCC18\MPASM\P18CXXX.INC
                                             ENDIF                                                                          C:\MCC18\MPASM\P18CXXX.INC
                                             IFDEF __18C801                                                                 C:\MCC18\MPASM\P18CXXX.INC
                                                INCLUDE <p18C801.INC>                                                       C:\MCC18\MPASM\P18CXXX.INC
                                             ENDIF                                                                          C:\MCC18\MPASM\P18CXXX.INC
                                             IFDEF __18C858                                                                 C:\MCC18\MPASM\P18CXXX.INC
                                                INCLUDE <p18C858.INC>                                                       C:\MCC18\MPASM\P18CXXX.INC
                                             ENDIF                                                                          C:\MCC18\MPASM\P18CXXX.INC
                                             IFDEF __18F1220                                                                C:\MCC18\MPASM\P18CXXX.INC
                                                INCLUDE <p18F1220.INC>                                                      C:\MCC18\MPASM\P18CXXX.INC
                                             ENDIF                                                                          C:\MCC18\MPASM\P18CXXX.INC
                                             IFDEF __18F1230                                                                C:\MCC18\MPASM\P18CXXX.INC
                                                INCLUDE <p18F1230.INC>                                                      C:\MCC18\MPASM\P18CXXX.INC
                                             ENDIF                                                                          C:\MCC18\MPASM\P18CXXX.INC
                                             IFDEF __18F1320                                                                C:\MCC18\MPASM\P18CXXX.INC
                                                INCLUDE <p18F1320.INC>                                                      C:\MCC18\MPASM\P18CXXX.INC
                                             ENDIF                                                                          C:\MCC18\MPASM\P18CXXX.INC
                                             IFDEF __18F1330                                                                C:\MCC18\MPASM\P18CXXX.INC
                                                INCLUDE <p18F1330.INC>                                                      C:\MCC18\MPASM\P18CXXX.INC
                                             ENDIF                                                                          C:\MCC18\MPASM\P18CXXX.INC
                                             IFDEF __18F2220                                                                C:\MCC18\MPASM\P18CXXX.INC
                                                INCLUDE <p18F2220.INC>                                                      C:\MCC18\MPASM\P18CXXX.INC
                                             ENDIF                                                                          C:\MCC18\MPASM\P18CXXX.INC
                                             IFDEF __18F2221                                                                C:\MCC18\MPASM\P18CXXX.INC
                                                INCLUDE <p18F2221.INC>                                                      C:\MCC18\MPASM\P18CXXX.INC
                                             ENDIF                                                                          C:\MCC18\MPASM\P18CXXX.INC
                                             IFDEF __18F2320                                                                C:\MCC18\MPASM\P18CXXX.INC
                                                INCLUDE <p18F2320.INC>                                                      C:\MCC18\MPASM\P18CXXX.INC
                                             ENDIF                                                                          C:\MCC18\MPASM\P18CXXX.INC
                                             IFDEF __18F2321                                                                C:\MCC18\MPASM\P18CXXX.INC
                                                INCLUDE <p18F2321.INC>                                                      C:\MCC18\MPASM\P18CXXX.INC
                                             ENDIF                                                                          C:\MCC18\MPASM\P18CXXX.INC
                                             IFDEF __18F2331                                                                C:\MCC18\MPASM\P18CXXX.INC
                                                INCLUDE <p18F2331.INC>                                                      C:\MCC18\MPASM\P18CXXX.INC
                                             ENDIF                                                                          C:\MCC18\MPASM\P18CXXX.INC
                                             IFDEF __18F2410                                                                C:\MCC18\MPASM\P18CXXX.INC
                                                INCLUDE <p18F2410.INC>                                                      C:\MCC18\MPASM\P18CXXX.INC
                                             ENDIF                                                                          C:\MCC18\MPASM\P18CXXX.INC
                                             IFDEF __18F242                                                                 C:\MCC18\MPASM\P18CXXX.INC
                                                INCLUDE <p18F242.INC>                                                       C:\MCC18\MPASM\P18CXXX.INC
                                             ENDIF                                                                          C:\MCC18\MPASM\P18CXXX.INC
                                             IFDEF __18F2420                                                                C:\MCC18\MPASM\P18CXXX.INC
                                                INCLUDE <p18F2420.INC>                                                      C:\MCC18\MPASM\P18CXXX.INC
                                             ENDIF                                                                          C:\MCC18\MPASM\P18CXXX.INC
                                             IFDEF __18F2423                                                                C:\MCC18\MPASM\P18CXXX.INC
                                                INCLUDE <p18F2423.INC>                                                      C:\MCC18\MPASM\P18CXXX.INC
                                             ENDIF                                                                          C:\MCC18\MPASM\P18CXXX.INC
                                             IFDEF __18F2431                                                                C:\MCC18\MPASM\P18CXXX.INC
                                                INCLUDE <p18F2431.INC>                                                      C:\MCC18\MPASM\P18CXXX.INC
                                             ENDIF                                                                          C:\MCC18\MPASM\P18CXXX.INC
                                             IFDEF __18F2439                                                                C:\MCC18\MPASM\P18CXXX.INC
                                                INCLUDE <p18F2439.INC>                                                      C:\MCC18\MPASM\P18CXXX.INC
                                             ENDIF                                                                          C:\MCC18\MPASM\P18CXXX.INC
                                             IFDEF __18F2450                                                                C:\MCC18\MPASM\P18CXXX.INC
                                                INCLUDE <p18F2450.INC>                                                      C:\MCC18\MPASM\P18CXXX.INC
                                             ENDIF                                                                          C:\MCC18\MPASM\P18CXXX.INC
                                             IFDEF __18F2455                                                                C:\MCC18\MPASM\P18CXXX.INC
                                                INCLUDE <p18F2455.INC>                                                      C:\MCC18\MPASM\P18CXXX.INC
                                             ENDIF                                                                          C:\MCC18\MPASM\P18CXXX.INC
                                             IFDEF __18F2458                                                                C:\MCC18\MPASM\P18CXXX.INC
                                                INCLUDE <p18F2458.INC>                                                      C:\MCC18\MPASM\P18CXXX.INC
                                             ENDIF                                                                          C:\MCC18\MPASM\P18CXXX.INC
                                             IFDEF __18F248                                                                 C:\MCC18\MPASM\P18CXXX.INC
                                                INCLUDE <p18F248.INC>                                                       C:\MCC18\MPASM\P18CXXX.INC
                                             ENDIF                                                                          C:\MCC18\MPASM\P18CXXX.INC
                                             IFDEF __18F2480                                                                C:\MCC18\MPASM\P18CXXX.INC
                                                INCLUDE <p18F2480.INC>                                                      C:\MCC18\MPASM\P18CXXX.INC
                                             ENDIF                                                                          C:\MCC18\MPASM\P18CXXX.INC
                                             IFDEF __18F24J10                                                               C:\MCC18\MPASM\P18CXXX.INC
                                                INCLUDE <p18F24J10.INC>                                                     C:\MCC18\MPASM\P18CXXX.INC
                                             ENDIF                                                                          C:\MCC18\MPASM\P18CXXX.INC
                                             IFDEF __18F24K20                                                               C:\MCC18\MPASM\P18CXXX.INC
                                                INCLUDE <p18F24K20.INC>                                                     C:\MCC18\MPASM\P18CXXX.INC
                                             ENDIF                                                                          C:\MCC18\MPASM\P18CXXX.INC
                                             IFDEF __18F2510                                                                C:\MCC18\MPASM\P18CXXX.INC
                                                INCLUDE <p18F2510.INC>                                                      C:\MCC18\MPASM\P18CXXX.INC
                                             ENDIF                                                                          C:\MCC18\MPASM\P18CXXX.INC
                                             IFDEF __18F2515                                                                C:\MCC18\MPASM\P18CXXX.INC
                                                INCLUDE <p18F2515.INC>                                                      C:\MCC18\MPASM\P18CXXX.INC
                                             ENDIF                                                                          C:\MCC18\MPASM\P18CXXX.INC
                                             IFDEF __18F252                                                                 C:\MCC18\MPASM\P18CXXX.INC
                                                INCLUDE <p18F252.INC>                                                       C:\MCC18\MPASM\P18CXXX.INC
                                             ENDIF                                                                          C:\MCC18\MPASM\P18CXXX.INC
                                             IFDEF __18F2520                                                                C:\MCC18\MPASM\P18CXXX.INC
                                                INCLUDE <p18F2520.INC>                                                      C:\MCC18\MPASM\P18CXXX.INC
                                             ENDIF                                                                          C:\MCC18\MPASM\P18CXXX.INC
                                             IFDEF __18F2523                                                                C:\MCC18\MPASM\P18CXXX.INC
                                                INCLUDE <p18F2523.INC>                                                      C:\MCC18\MPASM\P18CXXX.INC
                                             ENDIF                                                                          C:\MCC18\MPASM\P18CXXX.INC
                                             IFDEF __18F2525                                                                C:\MCC18\MPASM\P18CXXX.INC
                                                INCLUDE <p18F2525.INC>                                                      C:\MCC18\MPASM\P18CXXX.INC
                                             ENDIF                                                                          C:\MCC18\MPASM\P18CXXX.INC
                                             IFDEF __18F2539                                                                C:\MCC18\MPASM\P18CXXX.INC
                                                INCLUDE <p18F2539.INC>                                                      C:\MCC18\MPASM\P18CXXX.INC
                                             ENDIF                                                                          C:\MCC18\MPASM\P18CXXX.INC
                                             IFDEF __18F2550                                                                C:\MCC18\MPASM\P18CXXX.INC
                                                INCLUDE <p18F2550.INC>                                                      C:\MCC18\MPASM\P18CXXX.INC
                                             ENDIF                                                                          C:\MCC18\MPASM\P18CXXX.INC
                                             IFDEF __18F2553                                                                C:\MCC18\MPASM\P18CXXX.INC
                                                INCLUDE <p18F2553.INC>                                                      C:\MCC18\MPASM\P18CXXX.INC
                                             ENDIF                                                                          C:\MCC18\MPASM\P18CXXX.INC
                                             IFDEF __18F258                                                                 C:\MCC18\MPASM\P18CXXX.INC
                                                INCLUDE <p18F258.INC>                                                       C:\MCC18\MPASM\P18CXXX.INC
                                             ENDIF                                                                          C:\MCC18\MPASM\P18CXXX.INC
                                             IFDEF __18F2580                                                                C:\MCC18\MPASM\P18CXXX.INC
                                                INCLUDE <p18F2580.INC>                                                      C:\MCC18\MPASM\P18CXXX.INC
                                             ENDIF                                                                          C:\MCC18\MPASM\P18CXXX.INC
                                             IFDEF __18F2585                                                                C:\MCC18\MPASM\P18CXXX.INC
                                                INCLUDE <p18F2585.INC>                                                      C:\MCC18\MPASM\P18CXXX.INC
                                             ENDIF                                                                          C:\MCC18\MPASM\P18CXXX.INC
                                             IFDEF __18F25J10                                                               C:\MCC18\MPASM\P18CXXX.INC
                                                INCLUDE <p18F25J10.INC>                                                     C:\MCC18\MPASM\P18CXXX.INC
                                             ENDIF                                                                          C:\MCC18\MPASM\P18CXXX.INC
                                             IFDEF __18F25K20                                                               C:\MCC18\MPASM\P18CXXX.INC
                                                INCLUDE <p18F25K20.INC>                                                     C:\MCC18\MPASM\P18CXXX.INC
                                             ENDIF                                                                          C:\MCC18\MPASM\P18CXXX.INC
                                             IFDEF __18F2610                                                                C:\MCC18\MPASM\P18CXXX.INC
                                                INCLUDE <p18F2610.INC>                                                      C:\MCC18\MPASM\P18CXXX.INC
                                             ENDIF                                                                          C:\MCC18\MPASM\P18CXXX.INC
                                             IFDEF __18F2620                                                                C:\MCC18\MPASM\P18CXXX.INC
                                                INCLUDE <p18F2620.INC>                                                      C:\MCC18\MPASM\P18CXXX.INC
                                             ENDIF                                                                          C:\MCC18\MPASM\P18CXXX.INC
                                             IFDEF __18F2680                                                                C:\MCC18\MPASM\P18CXXX.INC
                                                INCLUDE <p18F2680.INC>                                                      C:\MCC18\MPASM\P18CXXX.INC
                                             ENDIF                                                                          C:\MCC18\MPASM\P18CXXX.INC
                                             IFDEF __18F2682                                                                C:\MCC18\MPASM\P18CXXX.INC
                                                INCLUDE <p18F2682.INC>                                                      C:\MCC18\MPASM\P18CXXX.INC
                                             ENDIF                                                                          C:\MCC18\MPASM\P18CXXX.INC
                                             IFDEF __18F2685                                                                C:\MCC18\MPASM\P18CXXX.INC
                                                INCLUDE <p18F2685.INC>                                                      C:\MCC18\MPASM\P18CXXX.INC
                                             ENDIF                                                                          C:\MCC18\MPASM\P18CXXX.INC
                                             IFDEF __18F26K20                                                               C:\MCC18\MPASM\P18CXXX.INC
                                                INCLUDE <p18F26K20.INC>                                                     C:\MCC18\MPASM\P18CXXX.INC
                                             ENDIF                                                                          C:\MCC18\MPASM\P18CXXX.INC
                                             IFDEF __18F4220                                                                C:\MCC18\MPASM\P18CXXX.INC
                                                INCLUDE <p18F4220.INC>                                                      C:\MCC18\MPASM\P18CXXX.INC
                                             ENDIF                                                                          C:\MCC18\MPASM\P18CXXX.INC
                                             IFDEF __18F4221                                                                C:\MCC18\MPASM\P18CXXX.INC
                                                INCLUDE <p18F4221.INC>                                                      C:\MCC18\MPASM\P18CXXX.INC
                                             ENDIF                                                                          C:\MCC18\MPASM\P18CXXX.INC
                                             IFDEF __18F4320                                                                C:\MCC18\MPASM\P18CXXX.INC
                                                INCLUDE <p18F4320.INC>                                                      C:\MCC18\MPASM\P18CXXX.INC
                                             ENDIF                                                                          C:\MCC18\MPASM\P18CXXX.INC
                                             IFDEF __18F4321                                                                C:\MCC18\MPASM\P18CXXX.INC
                                                INCLUDE <p18F4321.INC>                                                      C:\MCC18\MPASM\P18CXXX.INC
                                             ENDIF                                                                          C:\MCC18\MPASM\P18CXXX.INC
                                             IFDEF __18F4331                                                                C:\MCC18\MPASM\P18CXXX.INC
                                                INCLUDE <p18F4331.INC>                                                      C:\MCC18\MPASM\P18CXXX.INC
                                             ENDIF                                                                          C:\MCC18\MPASM\P18CXXX.INC
                                             IFDEF __18F4410                                                                C:\MCC18\MPASM\P18CXXX.INC
                                                INCLUDE <p18F4410.INC>                                                      C:\MCC18\MPASM\P18CXXX.INC
                                             ENDIF                                                                          C:\MCC18\MPASM\P18CXXX.INC
                                             IFDEF __18F442                                                                 C:\MCC18\MPASM\P18CXXX.INC
                                                INCLUDE <p18F442.INC>                                                       C:\MCC18\MPASM\P18CXXX.INC
                                             ENDIF                                                                          C:\MCC18\MPASM\P18CXXX.INC
                                             IFDEF __18F4420                                                                C:\MCC18\MPASM\P18CXXX.INC
                                                INCLUDE <p18F4420.INC>                                                      C:\MCC18\MPASM\P18CXXX.INC
                                             ENDIF                                                                          C:\MCC18\MPASM\P18CXXX.INC
                                             IFDEF __18F4423                                                                C:\MCC18\MPASM\P18CXXX.INC
                                                INCLUDE <p18F4423.INC>                                                      C:\MCC18\MPASM\P18CXXX.INC
                                             ENDIF                                                                          C:\MCC18\MPASM\P18CXXX.INC
                                             IFDEF __18F4431                                                                C:\MCC18\MPASM\P18CXXX.INC
                                                INCLUDE <p18F4431.INC>                                                      C:\MCC18\MPASM\P18CXXX.INC
                                             ENDIF                                                                          C:\MCC18\MPASM\P18CXXX.INC
                                             IFDEF __18F4439                                                                C:\MCC18\MPASM\P18CXXX.INC
                                                INCLUDE <p18F4439.INC>                                                      C:\MCC18\MPASM\P18CXXX.INC
                                             ENDIF                                                                          C:\MCC18\MPASM\P18CXXX.INC
                                             IFDEF __18F4450                                                                C:\MCC18\MPASM\P18CXXX.INC
                                                INCLUDE <p18F4450.INC>                                                      C:\MCC18\MPASM\P18CXXX.INC
                                             ENDIF                                                                          C:\MCC18\MPASM\P18CXXX.INC
                                             IFDEF __18F4455                                                                C:\MCC18\MPASM\P18CXXX.INC
                                                INCLUDE <p18F4455.INC>                                                      C:\MCC18\MPASM\P18CXXX.INC
                                             ENDIF                                                                          C:\MCC18\MPASM\P18CXXX.INC
                                             IFDEF __18F4458                                                                C:\MCC18\MPASM\P18CXXX.INC
                                                INCLUDE <p18F4458.INC>                                                      C:\MCC18\MPASM\P18CXXX.INC
                                             ENDIF                                                                          C:\MCC18\MPASM\P18CXXX.INC
                                             IFDEF __18F448                                                                 C:\MCC18\MPASM\P18CXXX.INC
                                                INCLUDE <p18F448.INC>                                                       C:\MCC18\MPASM\P18CXXX.INC
                                             ENDIF                                                                          C:\MCC18\MPASM\P18CXXX.INC
                                             IFDEF __18F4480                                                                C:\MCC18\MPASM\P18CXXX.INC
                                                INCLUDE <p18F4480.INC>                                                      C:\MCC18\MPASM\P18CXXX.INC
                                             ENDIF                                                                          C:\MCC18\MPASM\P18CXXX.INC
                                             IFDEF __18F44J10                                                               C:\MCC18\MPASM\P18CXXX.INC
                                                INCLUDE <p18F44J10.INC>                                                     C:\MCC18\MPASM\P18CXXX.INC
                                             ENDIF                                                                          C:\MCC18\MPASM\P18CXXX.INC
                                             IFDEF __18F44K20                                                               C:\MCC18\MPASM\P18CXXX.INC
                                                INCLUDE <p18F44K20.INC>                                                     C:\MCC18\MPASM\P18CXXX.INC
                                             ENDIF                                                                          C:\MCC18\MPASM\P18CXXX.INC
                                             IFDEF __18F4510                                                                C:\MCC18\MPASM\P18CXXX.INC
                                                INCLUDE <p18F4510.INC>                                                      C:\MCC18\MPASM\P18CXXX.INC
                                             ENDIF                                                                          C:\MCC18\MPASM\P18CXXX.INC
                                             IFDEF __18F4515                                                                C:\MCC18\MPASM\P18CXXX.INC
                                                INCLUDE <p18F4515.INC>                                                      C:\MCC18\MPASM\P18CXXX.INC
                                             ENDIF                                                                          C:\MCC18\MPASM\P18CXXX.INC
                                             IFDEF __18F452                                                                 C:\MCC18\MPASM\P18CXXX.INC
                                                INCLUDE <p18F452.INC>                                                       C:\MCC18\MPASM\P18CXXX.INC
                                             ENDIF                                                                          C:\MCC18\MPASM\P18CXXX.INC
                                             IFDEF __18F4520                                                                C:\MCC18\MPASM\P18CXXX.INC
                                                INCLUDE <p18F4520.INC>                                                      C:\MCC18\MPASM\P18CXXX.INC
                                             ENDIF                                                                          C:\MCC18\MPASM\P18CXXX.INC
                                             IFDEF __18F4523                                                                C:\MCC18\MPASM\P18CXXX.INC
                                                INCLUDE <p18F4523.INC>                                                      C:\MCC18\MPASM\P18CXXX.INC
                                             ENDIF                                                                          C:\MCC18\MPASM\P18CXXX.INC
                                             IFDEF __18F4525                                                                C:\MCC18\MPASM\P18CXXX.INC
                                                INCLUDE <p18F4525.INC>                                                      C:\MCC18\MPASM\P18CXXX.INC
                                             ENDIF                                                                          C:\MCC18\MPASM\P18CXXX.INC
                                             IFDEF __18F4539                                                                C:\MCC18\MPASM\P18CXXX.INC
                                                INCLUDE <p18F4539.INC>                                                      C:\MCC18\MPASM\P18CXXX.INC
                                             ENDIF                                                                          C:\MCC18\MPASM\P18CXXX.INC
                                             IFDEF __18F4550                                                                C:\MCC18\MPASM\P18CXXX.INC
                                                INCLUDE <p18F4550.INC>                                                      C:\MCC18\MPASM\P18CXXX.INC
                                             ENDIF                                                                          C:\MCC18\MPASM\P18CXXX.INC
                                             IFDEF __18F4553                                                                C:\MCC18\MPASM\P18CXXX.INC
                                                INCLUDE <p18F4553.INC>                                                      C:\MCC18\MPASM\P18CXXX.INC
                                             ENDIF                                                                          C:\MCC18\MPASM\P18CXXX.INC
                                             IFDEF __18F458                                                                 C:\MCC18\MPASM\P18CXXX.INC
                                                INCLUDE <p18F458.INC>                                                       C:\MCC18\MPASM\P18CXXX.INC
                                             ENDIF                                                                          C:\MCC18\MPASM\P18CXXX.INC
                                             IFDEF __18F4580                                                                C:\MCC18\MPASM\P18CXXX.INC
                                                INCLUDE <p18F4580.INC>                                                      C:\MCC18\MPASM\P18CXXX.INC
                                             ENDIF                                                                          C:\MCC18\MPASM\P18CXXX.INC
                                             IFDEF __18F4585                                                                C:\MCC18\MPASM\P18CXXX.INC
                                                INCLUDE <p18F4585.INC>                                                      C:\MCC18\MPASM\P18CXXX.INC
                                             ENDIF                                                                          C:\MCC18\MPASM\P18CXXX.INC
                                             IFDEF __18F45J10                                                               C:\MCC18\MPASM\P18CXXX.INC
                                                INCLUDE <p18F45J10.INC>                                                     C:\MCC18\MPASM\P18CXXX.INC
                                             ENDIF                                                                          C:\MCC18\MPASM\P18CXXX.INC
                                             IFDEF __18F45K20                                                               C:\MCC18\MPASM\P18CXXX.INC
                                                INCLUDE <p18F45K20.INC>                                                     C:\MCC18\MPASM\P18CXXX.INC
                                             ENDIF                                                                          C:\MCC18\MPASM\P18CXXX.INC
                                             IFDEF __18F4610                                                                C:\MCC18\MPASM\P18CXXX.INC
                                                INCLUDE <p18F4610.INC>                                                      C:\MCC18\MPASM\P18CXXX.INC
                                             ENDIF                                                                          C:\MCC18\MPASM\P18CXXX.INC
                                             IFDEF __18F4620                                                                C:\MCC18\MPASM\P18CXXX.INC
                                                INCLUDE <p18F4620.INC>                                                      C:\MCC18\MPASM\P18CXXX.INC
                                             ENDIF                                                                          C:\MCC18\MPASM\P18CXXX.INC
                                             IFDEF __18F4680                                                                C:\MCC18\MPASM\P18CXXX.INC
                                                INCLUDE <p18F4680.INC>                                                      C:\MCC18\MPASM\P18CXXX.INC
                                             ENDIF                                                                          C:\MCC18\MPASM\P18CXXX.INC
                                             IFDEF __18F4682                                                                C:\MCC18\MPASM\P18CXXX.INC
                                                INCLUDE <p18F4682.INC>                                                      C:\MCC18\MPASM\P18CXXX.INC
                                             ENDIF                                                                          C:\MCC18\MPASM\P18CXXX.INC
                                             IFDEF __18F4685                                                                C:\MCC18\MPASM\P18CXXX.INC
                                                INCLUDE <p18F4685.INC>                                                      C:\MCC18\MPASM\P18CXXX.INC
                                             ENDIF                                                                          C:\MCC18\MPASM\P18CXXX.INC
                                             IFDEF __18F46K20                                                               C:\MCC18\MPASM\P18CXXX.INC
                                                INCLUDE <p18F46K20.INC>                                                     C:\MCC18\MPASM\P18CXXX.INC
                                             ENDIF                                                                          C:\MCC18\MPASM\P18CXXX.INC
                                             IFDEF __18F6310                                                                C:\MCC18\MPASM\P18CXXX.INC
                                                INCLUDE <p18F6310.INC>                                                      C:\MCC18\MPASM\P18CXXX.INC
                                             ENDIF                                                                          C:\MCC18\MPASM\P18CXXX.INC
                                             IFDEF __18F6390                                                                C:\MCC18\MPASM\P18CXXX.INC
                                                INCLUDE <p18F6390.INC>                                                      C:\MCC18\MPASM\P18CXXX.INC
                                             ENDIF                                                                          C:\MCC18\MPASM\P18CXXX.INC
                                             IFDEF __18F63J11                                                               C:\MCC18\MPASM\P18CXXX.INC
                                                INCLUDE <p18F63J11.INC>                                                     C:\MCC18\MPASM\P18CXXX.INC
                                             ENDIF                                                                          C:\MCC18\MPASM\P18CXXX.INC
                                             IFDEF __18F63J90                                                               C:\MCC18\MPASM\P18CXXX.INC
                                                INCLUDE <p18F63J90.INC>                                                     C:\MCC18\MPASM\P18CXXX.INC
                                             ENDIF                                                                          C:\MCC18\MPASM\P18CXXX.INC
                                             IFDEF __18F6410                                                                C:\MCC18\MPASM\P18CXXX.INC
                                                INCLUDE <p18F6410.INC>                                                      C:\MCC18\MPASM\P18CXXX.INC
                                             ENDIF                                                                          C:\MCC18\MPASM\P18CXXX.INC
                                             IFDEF __18F6490                                                                C:\MCC18\MPASM\P18CXXX.INC
                                                INCLUDE <p18F6490.INC>                                                      C:\MCC18\MPASM\P18CXXX.INC
                                             ENDIF                                                                          C:\MCC18\MPASM\P18CXXX.INC
                                             IFDEF __18F64J11                                                               C:\MCC18\MPASM\P18CXXX.INC
                                                INCLUDE <p18F64J11.INC>                                                     C:\MCC18\MPASM\P18CXXX.INC
                                             ENDIF                                                                          C:\MCC18\MPASM\P18CXXX.INC
                                             IFDEF __18F64J90                                                               C:\MCC18\MPASM\P18CXXX.INC
                                                INCLUDE <p18F64J90.INC>                                                     C:\MCC18\MPASM\P18CXXX.INC
                                             ENDIF                                                                          C:\MCC18\MPASM\P18CXXX.INC
                                             IFDEF __18F6520                                                                C:\MCC18\MPASM\P18CXXX.INC
                                                INCLUDE <p18F6520.INC>                                                      C:\MCC18\MPASM\P18CXXX.INC
                                             ENDIF                                                                          C:\MCC18\MPASM\P18CXXX.INC
                                             IFDEF __18F6525                                                                C:\MCC18\MPASM\P18CXXX.INC
                                                INCLUDE <p18F6525.INC>                                                      C:\MCC18\MPASM\P18CXXX.INC
                                             ENDIF                                                                          C:\MCC18\MPASM\P18CXXX.INC
                                             IFDEF __18F6527                                                                C:\MCC18\MPASM\P18CXXX.INC
                                                INCLUDE <p18F6527.INC>                                                      C:\MCC18\MPASM\P18CXXX.INC
                                             ENDIF                                                                          C:\MCC18\MPASM\P18CXXX.INC
                                             IFDEF __18F6585                                                                C:\MCC18\MPASM\P18CXXX.INC
                                                INCLUDE <p18F6585.INC>                                                      C:\MCC18\MPASM\P18CXXX.INC
                                             ENDIF                                                                          C:\MCC18\MPASM\P18CXXX.INC
                                             IFDEF __18F65J10                                                               C:\MCC18\MPASM\P18CXXX.INC
                                                INCLUDE <p18F65J10.INC>                                                     C:\MCC18\MPASM\P18CXXX.INC
                                             ENDIF                                                                          C:\MCC18\MPASM\P18CXXX.INC
                                             IFDEF __18F65J11                                                               C:\MCC18\MPASM\P18CXXX.INC
                                                INCLUDE <p18F65J11.INC>                                                     C:\MCC18\MPASM\P18CXXX.INC
                                             ENDIF                                                                          C:\MCC18\MPASM\P18CXXX.INC
                                             IFDEF __18F65J15                                                               C:\MCC18\MPASM\P18CXXX.INC
                                                INCLUDE <p18F65J15.INC>                                                     C:\MCC18\MPASM\P18CXXX.INC
                                             ENDIF                                                                          C:\MCC18\MPASM\P18CXXX.INC
                                             IFDEF __18F65J50                                                               C:\MCC18\MPASM\P18CXXX.INC
                                                INCLUDE <p18F65J50.INC>                                                     C:\MCC18\MPASM\P18CXXX.INC
                                             ENDIF                                                                          C:\MCC18\MPASM\P18CXXX.INC
                                             IFDEF __18F65J90                                                               C:\MCC18\MPASM\P18CXXX.INC
                                                INCLUDE <p18F65J90.INC>                                                     C:\MCC18\MPASM\P18CXXX.INC
                                             ENDIF                                                                          C:\MCC18\MPASM\P18CXXX.INC
                                             IFDEF __18F6620                                                                C:\MCC18\MPASM\P18CXXX.INC
                                                INCLUDE <p18F6620.INC>                                                      C:\MCC18\MPASM\P18CXXX.INC
                                             ENDIF                                                                          C:\MCC18\MPASM\P18CXXX.INC
                                             IFDEF __18F6621                                                                C:\MCC18\MPASM\P18CXXX.INC
                                                INCLUDE <p18F6621.INC>                                                      C:\MCC18\MPASM\P18CXXX.INC
                                             ENDIF                                                                          C:\MCC18\MPASM\P18CXXX.INC
                                             IFDEF __18F6622                                                                C:\MCC18\MPASM\P18CXXX.INC
                                                INCLUDE <p18F6622.INC>                                                      C:\MCC18\MPASM\P18CXXX.INC
                                             ENDIF                                                                          C:\MCC18\MPASM\P18CXXX.INC
                                             IFDEF __18F6627                                                                C:\MCC18\MPASM\P18CXXX.INC
                                                INCLUDE <p18F6627.INC>                                                      C:\MCC18\MPASM\P18CXXX.INC
                                             ENDIF                                                                          C:\MCC18\MPASM\P18CXXX.INC
                                             IFDEF __18F6628                                                                C:\MCC18\MPASM\P18CXXX.INC
                                                INCLUDE <p18F6628.INC>                                                      C:\MCC18\MPASM\P18CXXX.INC
                                             ENDIF                                                                          C:\MCC18\MPASM\P18CXXX.INC
                                             IFDEF __18F6680                                                                C:\MCC18\MPASM\P18CXXX.INC
                                                INCLUDE <p18F6680.INC>                                                      C:\MCC18\MPASM\P18CXXX.INC
                                             ENDIF                                                                          C:\MCC18\MPASM\P18CXXX.INC
                                             IFDEF __18F66J10                                                               C:\MCC18\MPASM\P18CXXX.INC
                                                INCLUDE <p18F66J10.INC>                                                     C:\MCC18\MPASM\P18CXXX.INC
                                             ENDIF                                                                          C:\MCC18\MPASM\P18CXXX.INC
                                             IFDEF __18F66J11                                                               C:\MCC18\MPASM\P18CXXX.INC
                                                INCLUDE <p18F66J11.INC>                                                     C:\MCC18\MPASM\P18CXXX.INC
                                             ENDIF                                                                          C:\MCC18\MPASM\P18CXXX.INC
                                             IFDEF __18F66J15                                                               C:\MCC18\MPASM\P18CXXX.INC
                                                INCLUDE <p18F66J15.INC>                                                     C:\MCC18\MPASM\P18CXXX.INC
                                             ENDIF                                                                          C:\MCC18\MPASM\P18CXXX.INC
                                             IFDEF __18F66J16                                                               C:\MCC18\MPASM\P18CXXX.INC
                                                INCLUDE <p18F66J16.INC>                                                     C:\MCC18\MPASM\P18CXXX.INC
                                             ENDIF                                                                          C:\MCC18\MPASM\P18CXXX.INC
                                             IFDEF __18F66J50                                                               C:\MCC18\MPASM\P18CXXX.INC
                                                INCLUDE <p18F66J50.INC>                                                     C:\MCC18\MPASM\P18CXXX.INC
                                             ENDIF                                                                          C:\MCC18\MPASM\P18CXXX.INC
                                             IFDEF __18F66J55                                                               C:\MCC18\MPASM\P18CXXX.INC
                                                INCLUDE <p18F66J55.INC>                                                     C:\MCC18\MPASM\P18CXXX.INC
                                             ENDIF                                                                          C:\MCC18\MPASM\P18CXXX.INC
                                             IFDEF __18F66J60                                                               C:\MCC18\MPASM\P18CXXX.INC
                                                INCLUDE <p18F66J60.INC>                                                     C:\MCC18\MPASM\P18CXXX.INC
                                             ENDIF                                                                          C:\MCC18\MPASM\P18CXXX.INC
                                             IFDEF __18F66J65                                                               C:\MCC18\MPASM\P18CXXX.INC
                                                INCLUDE <p18F66J65.INC>                                                     C:\MCC18\MPASM\P18CXXX.INC
                                             ENDIF                                                                          C:\MCC18\MPASM\P18CXXX.INC
                                             IFDEF __18F6720                                                                C:\MCC18\MPASM\P18CXXX.INC
                                                INCLUDE <p18F6720.INC>                                                      C:\MCC18\MPASM\P18CXXX.INC
                                             ENDIF                                                                          C:\MCC18\MPASM\P18CXXX.INC
                                             IFDEF __18F6722                                                                C:\MCC18\MPASM\P18CXXX.INC
                                                INCLUDE <p18F6722.INC>                                                      C:\MCC18\MPASM\P18CXXX.INC
                                             ENDIF                                                                          C:\MCC18\MPASM\P18CXXX.INC
                                             IFDEF __18F6723                                                                C:\MCC18\MPASM\P18CXXX.INC
                                                INCLUDE <p18F6723.INC>                                                      C:\MCC18\MPASM\P18CXXX.INC
                                             ENDIF                                                                          C:\MCC18\MPASM\P18CXXX.INC
                                             IFDEF __18F67J10                                                               C:\MCC18\MPASM\P18CXXX.INC
                                                INCLUDE <p18F67J10.INC>                                                     C:\MCC18\MPASM\P18CXXX.INC
                                             ENDIF                                                                          C:\MCC18\MPASM\P18CXXX.INC
                                             IFDEF __18F67J11                                                               C:\MCC18\MPASM\P18CXXX.INC
                                                INCLUDE <p18F67J11.INC>                                                     C:\MCC18\MPASM\P18CXXX.INC
                                             ENDIF                                                                          C:\MCC18\MPASM\P18CXXX.INC
                                             IFDEF __18F67J50                                                               C:\MCC18\MPASM\P18CXXX.INC
                                                INCLUDE <p18F67J50.INC>                                                     C:\MCC18\MPASM\P18CXXX.INC
                                             ENDIF                                                                          C:\MCC18\MPASM\P18CXXX.INC
                                             IFDEF __18F67J60                                                               C:\MCC18\MPASM\P18CXXX.INC
                                                INCLUDE <p18F67J60.INC>                                                     C:\MCC18\MPASM\P18CXXX.INC
                                             ENDIF                                                                          C:\MCC18\MPASM\P18CXXX.INC
                                             IFDEF __18F8310                                                                C:\MCC18\MPASM\P18CXXX.INC
                                                INCLUDE <p18F8310.INC>                                                      C:\MCC18\MPASM\P18CXXX.INC
                                             ENDIF                                                                          C:\MCC18\MPASM\P18CXXX.INC
                                             IFDEF __18F8390                                                                C:\MCC18\MPASM\P18CXXX.INC
                                                INCLUDE <p18F8390.INC>                                                      C:\MCC18\MPASM\P18CXXX.INC
                                             ENDIF                                                                          C:\MCC18\MPASM\P18CXXX.INC
                                             IFDEF __18F83J11                                                               C:\MCC18\MPASM\P18CXXX.INC
                                                INCLUDE <p18F83J11.INC>                                                     C:\MCC18\MPASM\P18CXXX.INC
                                             ENDIF                                                                          C:\MCC18\MPASM\P18CXXX.INC
                                             IFDEF __18F83J90                                                               C:\MCC18\MPASM\P18CXXX.INC
                                                INCLUDE <p18F83J90.INC>                                                     C:\MCC18\MPASM\P18CXXX.INC
                                             ENDIF                                                                          C:\MCC18\MPASM\P18CXXX.INC
                                             IFDEF __18F8410                                                                C:\MCC18\MPASM\P18CXXX.INC
                                                INCLUDE <p18F8410.INC>                                                      C:\MCC18\MPASM\P18CXXX.INC
                                             ENDIF                                                                          C:\MCC18\MPASM\P18CXXX.INC
                                             IFDEF __18F8490                                                                C:\MCC18\MPASM\P18CXXX.INC
                                                INCLUDE <p18F8490.INC>                                                      C:\MCC18\MPASM\P18CXXX.INC
                                             ENDIF                                                                          C:\MCC18\MPASM\P18CXXX.INC
                                             IFDEF __18F84J11                                                               C:\MCC18\MPASM\P18CXXX.INC
                                                INCLUDE <p18F84J11.INC>                                                     C:\MCC18\MPASM\P18CXXX.INC
                                             ENDIF                                                                          C:\MCC18\MPASM\P18CXXX.INC
                                             IFDEF __18F84J90                                                               C:\MCC18\MPASM\P18CXXX.INC
                                                INCLUDE <p18F84J90.INC>                                                     C:\MCC18\MPASM\P18CXXX.INC
                                             ENDIF                                                                          C:\MCC18\MPASM\P18CXXX.INC
                                             IFDEF __18F8520                                                                C:\MCC18\MPASM\P18CXXX.INC
                                                INCLUDE <p18F8520.INC>                                                      C:\MCC18\MPASM\P18CXXX.INC
                                             ENDIF                                                                          C:\MCC18\MPASM\P18CXXX.INC
                                             IFDEF __18F8525                                                                C:\MCC18\MPASM\P18CXXX.INC
                                                INCLUDE <p18F8525.INC>                                                      C:\MCC18\MPASM\P18CXXX.INC
                                             ENDIF                                                                          C:\MCC18\MPASM\P18CXXX.INC
                                             IFDEF __18F8527                                                                C:\MCC18\MPASM\P18CXXX.INC
                                                INCLUDE <p18F8527.INC>                                                      C:\MCC18\MPASM\P18CXXX.INC
                                             ENDIF                                                                          C:\MCC18\MPASM\P18CXXX.INC
                                             IFDEF __18F8585                                                                C:\MCC18\MPASM\P18CXXX.INC
                                                INCLUDE <p18F8585.INC>                                                      C:\MCC18\MPASM\P18CXXX.INC
                                             ENDIF                                                                          C:\MCC18\MPASM\P18CXXX.INC
                                             IFDEF __18F85J10                                                               C:\MCC18\MPASM\P18CXXX.INC
                                                INCLUDE <p18F85J10.INC>                                                     C:\MCC18\MPASM\P18CXXX.INC
                                             ENDIF                                                                          C:\MCC18\MPASM\P18CXXX.INC
                                             IFDEF __18F85J11                                                               C:\MCC18\MPASM\P18CXXX.INC
                                                INCLUDE <p18F85J11.INC>                                                     C:\MCC18\MPASM\P18CXXX.INC
                                             ENDIF                                                                          C:\MCC18\MPASM\P18CXXX.INC
                                             IFDEF __18F85J15                                                               C:\MCC18\MPASM\P18CXXX.INC
                                                INCLUDE <p18F85J15.INC>                                                     C:\MCC18\MPASM\P18CXXX.INC
                                             ENDIF                                                                          C:\MCC18\MPASM\P18CXXX.INC
                                             IFDEF __18F85J50                                                               C:\MCC18\MPASM\P18CXXX.INC
                                                INCLUDE <p18F85J50.INC>                                                     C:\MCC18\MPASM\P18CXXX.INC
                                             ENDIF                                                                          C:\MCC18\MPASM\P18CXXX.INC
                                             IFDEF __18F85J90                                                               C:\MCC18\MPASM\P18CXXX.INC
                                                INCLUDE <p18F85J90.INC>                                                     C:\MCC18\MPASM\P18CXXX.INC
                                             ENDIF                                                                          C:\MCC18\MPASM\P18CXXX.INC
                                             IFDEF __18F8620                                                                C:\MCC18\MPASM\P18CXXX.INC
                                                INCLUDE <p18F8620.INC>                                                      C:\MCC18\MPASM\P18CXXX.INC
                                             ENDIF                                                                          C:\MCC18\MPASM\P18CXXX.INC
                                             IFDEF __18F8621                                                                C:\MCC18\MPASM\P18CXXX.INC
                                                INCLUDE <p18F8621.INC>                                                      C:\MCC18\MPASM\P18CXXX.INC
                                             ENDIF                                                                          C:\MCC18\MPASM\P18CXXX.INC
                                             IFDEF __18F8622                                                                C:\MCC18\MPASM\P18CXXX.INC
                                                INCLUDE <p18F8622.INC>                                                      C:\MCC18\MPASM\P18CXXX.INC
                                             ENDIF                                                                          C:\MCC18\MPASM\P18CXXX.INC
                                             IFDEF __18F8627                                                                C:\MCC18\MPASM\P18CXXX.INC
                                                INCLUDE <p18F8627.INC>                                                      C:\MCC18\MPASM\P18CXXX.INC
                                             ENDIF                                                                          C:\MCC18\MPASM\P18CXXX.INC
                                             IFDEF __18F8628                                                                C:\MCC18\MPASM\P18CXXX.INC
                                                INCLUDE <p18F8628.INC>                                                      C:\MCC18\MPASM\P18CXXX.INC
                                             ENDIF                                                                          C:\MCC18\MPASM\P18CXXX.INC
                                             IFDEF __18F8680                                                                C:\MCC18\MPASM\P18CXXX.INC
                                                INCLUDE <p18F8680.INC>                                                      C:\MCC18\MPASM\P18CXXX.INC
                                             ENDIF                                                                          C:\MCC18\MPASM\P18CXXX.INC
                                             IFDEF __18F86J10                                                               C:\MCC18\MPASM\P18CXXX.INC
                                                INCLUDE <p18F86J10.INC>                                                     C:\MCC18\MPASM\P18CXXX.INC
                                             ENDIF                                                                          C:\MCC18\MPASM\P18CXXX.INC
                                             IFDEF __18F86J11                                                               C:\MCC18\MPASM\P18CXXX.INC
                                                INCLUDE <p18F86J11.INC>                                                     C:\MCC18\MPASM\P18CXXX.INC
                                             ENDIF                                                                          C:\MCC18\MPASM\P18CXXX.INC
                                             IFDEF __18F86J15                                                               C:\MCC18\MPASM\P18CXXX.INC
                                                INCLUDE <p18F86J15.INC>                                                     C:\MCC18\MPASM\P18CXXX.INC
                                             ENDIF                                                                          C:\MCC18\MPASM\P18CXXX.INC
                                             IFDEF __18F86J16                                                               C:\MCC18\MPASM\P18CXXX.INC
                                                INCLUDE <p18F86J16.INC>                                                     C:\MCC18\MPASM\P18CXXX.INC
                                             ENDIF                                                                          C:\MCC18\MPASM\P18CXXX.INC
                                             IFDEF __18F86J50                                                               C:\MCC18\MPASM\P18CXXX.INC
                                                INCLUDE <p18F86J50.INC>                                                     C:\MCC18\MPASM\P18CXXX.INC
                                             ENDIF                                                                          C:\MCC18\MPASM\P18CXXX.INC
                                             IFDEF __18F86J55                                                               C:\MCC18\MPASM\P18CXXX.INC
                                                INCLUDE <p18F86J55.INC>                                                     C:\MCC18\MPASM\P18CXXX.INC
                                             ENDIF                                                                          C:\MCC18\MPASM\P18CXXX.INC
                                             IFDEF __18F86J60                                                               C:\MCC18\MPASM\P18CXXX.INC
                                                INCLUDE <p18F86J60.INC>                                                     C:\MCC18\MPASM\P18CXXX.INC
                                             ENDIF                                                                          C:\MCC18\MPASM\P18CXXX.INC
                                             IFDEF __18F86J65                                                               C:\MCC18\MPASM\P18CXXX.INC
                                                INCLUDE <p18F86J65.INC>                                                     C:\MCC18\MPASM\P18CXXX.INC
                                             ENDIF                                                                          C:\MCC18\MPASM\P18CXXX.INC
                                             IFDEF __18F8720                                                                C:\MCC18\MPASM\P18CXXX.INC
                                                INCLUDE <p18F8720.INC>                                                      C:\MCC18\MPASM\P18CXXX.INC
                                             ENDIF                                                                          C:\MCC18\MPASM\P18CXXX.INC
                                             IFDEF __18F8722                                                                C:\MCC18\MPASM\P18CXXX.INC
                                                INCLUDE <p18F8722.INC>                                                      C:\MCC18\MPASM\P18CXXX.INC
                                             ENDIF                                                                          C:\MCC18\MPASM\P18CXXX.INC
                                             IFDEF __18F8723                                                                C:\MCC18\MPASM\P18CXXX.INC
                                                INCLUDE <p18F8723.INC>                                                      C:\MCC18\MPASM\P18CXXX.INC
                                             ENDIF                                                                          C:\MCC18\MPASM\P18CXXX.INC
                                             IFDEF __18F87J10                                                               C:\MCC18\MPASM\P18CXXX.INC
                                                INCLUDE <p18F87J10.INC>                                                     C:\MCC18\MPASM\P18CXXX.INC
                                             ENDIF                                                                          C:\MCC18\MPASM\P18CXXX.INC
                                             IFDEF __18F87J11                                                               C:\MCC18\MPASM\P18CXXX.INC
                                                INCLUDE <p18F87J11.INC>                                                     C:\MCC18\MPASM\P18CXXX.INC
                                             ENDIF                                                                          C:\MCC18\MPASM\P18CXXX.INC
                                             IFDEF __18F87J50                                                               C:\MCC18\MPASM\P18CXXX.INC
                                                INCLUDE <p18F87J50.INC>                                                     C:\MCC18\MPASM\P18CXXX.INC
                                             ENDIF                                                                          C:\MCC18\MPASM\P18CXXX.INC
                                             IFDEF __18F87J60                                                               C:\MCC18\MPASM\P18CXXX.INC
                                                INCLUDE <p18F87J60.INC>                                                     C:\MCC18\MPASM\P18CXXX.INC
                                             ENDIF                                                                          C:\MCC18\MPASM\P18CXXX.INC
                                             IFDEF __18F96J60                                                               C:\MCC18\MPASM\P18CXXX.INC
                                                INCLUDE <p18F96J60.INC>                                                     C:\MCC18\MPASM\P18CXXX.INC
                                             ENDIF                                                                          C:\MCC18\MPASM\P18CXXX.INC
                                             IFDEF __18F96J65                                                               C:\MCC18\MPASM\P18CXXX.INC
                                                INCLUDE <p18F96J65.INC>                                                     C:\MCC18\MPASM\P18CXXX.INC
                                             ENDIF                                                                          C:\MCC18\MPASM\P18CXXX.INC
                                             IFDEF __18F97J60                                                               C:\MCC18\MPASM\P18CXXX.INC
                                                INCLUDE <p18F97J60.INC>                                                     C:\MCC18\MPASM\P18CXXX.INC
                                             ENDIF                                                                          C:\MCC18\MPASM\P18CXXX.INC
                                                                                                                            C:\MCC18\MPASM\P18CXXX.INC
